(dp0
S'output_home'
p1
S'/home2/jcjeong/project/stanalyzer0/stanalyzer/media/jcjeong/201302121335439526451FfZph/'
p2
sS'num_atoms'
p3
V36855
p4
sS'media_home'
p5
S'/home2/jcjeong/project/stanalyzer0/stanalyzer/media'
p6
sS'funcName'
p7
(lp8
Vbox
p9
aVhelix_tilt
p10
asS'Paras'
p11
(lp12
(lp13
(lp14
I2
aa(lp15
V1
p16
aa(lp17
Voutput.dat
p18
aaa(lp19
(lp20
I6
aa(lp21
g16
ag16
ag16
ag16
ag16
ag16
ag16
ag16
ag16
ag16
ag16
ag16
ag16
ag16
ag16
ag16
ag16
ag16
ag16
ag16
ag16
ag16
ag16
ag16
ag16
ag16
ag16
ag16
ag16
ag16
ag16
ag16
ag16
ag16
ag16
ag16
ag16
ag16
ag16
ag16
aa(lp22
Voutput.dat
p23
aVoutput1.dat
p24
aVoutput2.dat
p25
aVoutput3.dat
p26
aVoutput4.dat
p27
aVoutput5.dat
p28
aVoutput6.dat
p29
aVoutput7.dat
p30
aVoutput8.dat
p31
aVoutput9.dat
p32
aVoutput10.dat
p33
aVoutput11.dat
p34
aVoutput12.dat
p35
aVoutput13.dat
p36
aVoutput14.dat
p37
aVoutput15.dat
p38
aVoutput16.dat
p39
aVoutput17.dat
p40
aVoutput18.dat
p41
aVoutput19.dat
p42
aVoutput20.dat
p43
aVoutput21.dat
p44
aVoutput22.dat
p45
aVoutput23.dat
p46
aVoutput24.dat
p47
aVoutput25.dat
p48
aVoutput26.dat
p49
aVoutput27.dat
p50
aVoutput28.dat
p51
aVoutput29.dat
p52
aVoutput30.dat
p53
aVoutput31.dat
p54
aVoutput32.dat
p55
aVoutput33.dat
p56
aVoutput34.dat
p57
aVoutput35.dat
p58
aVoutput36.dat
p59
aVoutput37.dat
p60
aVoutput38.dat
p61
aVoutput39.dat
p62
aa(lp63
V0
p64
ag64
ag64
ag64
ag64
ag64
ag64
ag64
ag64
ag64
ag64
ag64
ag64
ag64
ag64
ag64
ag64
ag64
ag64
ag64
ag64
ag64
ag64
ag64
ag64
ag64
ag64
ag64
ag64
ag64
ag64
ag64
ag64
ag64
ag64
ag64
ag64
ag64
ag64
ag64
aa(lp65
VPROA
p66
aVPROA
p67
aVPROA
p68
aVPROA
p69
aVPROA
p70
aVPROA
p71
aVPROA
p72
aVPROA
p73
aVPROA
p74
aVPROA
p75
aVPROA
p76
aVPROA
p77
aVPROA
p78
aVPROA
p79
aVPROA
p80
aVPROA
p81
aVPROA
p82
aVPROA
p83
aVPROA
p84
aVPROA
p85
aVPROA
p86
aVPROA
p87
aVPROA
p88
aVPROA
p89
aVPROA
p90
aVPROA
p91
aVPROA
p92
aVPROA
p93
aVPROA
p94
aVPROA
p95
aVPROA
p96
aVPROA
p97
aVPROA
p98
aVPROA
p99
aVPROA
p100
aVPROA
p101
aVPROA
p102
aVPROA
p103
aVPROA
p104
aVPROA
p105
aa(lp106
g16
ag16
ag16
ag16
ag16
ag16
ag16
ag16
ag16
ag16
ag16
ag16
ag16
ag16
ag16
ag16
ag16
ag16
ag16
ag16
ag16
ag16
ag16
ag16
ag16
ag16
ag16
ag16
ag16
ag16
ag16
ag16
ag16
ag16
ag16
ag16
ag16
ag16
ag16
ag16
aa(lp107
V30
p108
aV46
p109
aV15
p110
aV19
p111
aV20
p112
aV30
p113
aV40
p114
aV46
p115
aV28
p116
aV38
p117
aV18
p118
aV19
p119
aV20
p120
aV21
p121
aV22
p122
aV23
p123
aV24
p124
aV25
p125
aV26
p126
aV27
p127
aV28
p128
aV29
p129
aV30
p130
aV31
p131
aV32
p132
aV33
p133
aV34
p134
aV35
p135
aV36
p136
aV37
p137
aV38
p138
aV39
p139
aV40
p140
aV41
p141
aV42
p142
aV43
p143
aV44
p144
aV45
p145
aV46
p146
aV17
p147
aaasS'para_pkeys'
p148
(lp149
(lp150
I1773
aI1774
aI1775
aa(lp151
I1776
aI1777
aI1778
aI1779
aI1780
aI1781
aI1782
aI1783
aI1784
aI1785
aI1786
aI1787
aI1788
aI1789
aI1790
aI1791
aI1792
aI1793
aI1794
aI1795
aI1796
aI1797
aI1798
aI1799
aI1800
aI1801
aI1802
aI1803
aI1804
aI1805
aI1806
aI1807
aI1808
aI1809
aI1810
aI1811
aI1812
aI1813
aI1814
aI1815
aI1816
aI1817
aI1818
aI1819
aI1820
aI1821
aI1822
aI1823
aI1824
aI1825
aI1826
aI1827
aI1828
aI1829
aI1830
aI1831
aI1832
aI1833
aI1834
aI1835
aI1836
aI1837
aI1838
aI1839
aI1840
aI1841
aI1842
aI1843
aI1844
aI1845
aI1846
aI1847
aI1848
aI1849
aI1850
aI1851
aI1852
aI1853
aI1854
aI1855
aI1856
aI1857
aI1858
aI1859
aI1860
aI1861
aI1862
aI1863
aI1864
aI1865
aI1866
aI1867
aI1868
aI1869
aI1870
aI1871
aI1872
aI1873
aI1874
aI1875
aI1876
aI1877
aI1878
aI1879
aI1880
aI1881
aI1882
aI1883
aI1884
aI1885
aI1886
aI1887
aI1888
aI1889
aI1890
aI1891
aI1892
aI1893
aI1894
aI1895
aI1896
aI1897
aI1898
aI1899
aI1900
aI1901
aI1902
aI1903
aI1904
aI1905
aI1906
aI1907
aI1908
aI1909
aI1910
aI1911
aI1912
aI1913
aI1914
aI1915
aI1916
aI1917
aI1918
aI1919
aI1920
aI1921
aI1922
aI1923
aI1924
aI1925
aI1926
aI1927
aI1928
aI1929
aI1930
aI1931
aI1932
aI1933
aI1934
aI1935
aI1936
aI1937
aI1938
aI1939
aI1940
aI1941
aI1942
aI1943
aI1944
aI1945
aI1946
aI1947
aI1948
aI1949
aI1950
aI1951
aI1952
aI1953
aI1954
aI1955
aI1956
aI1957
aI1958
aI1959
aI1960
aI1961
aI1962
aI1963
aI1964
aI1965
aI1966
aI1967
aI1968
aI1969
aI1970
aI1971
aI1972
aI1973
aI1974
aI1975
aI1976
aI1977
aI1978
aI1979
aI1980
aI1981
aI1982
aI1983
aI1984
aI1985
aI1986
aI1987
aI1988
aI1989
aI1990
aI1991
aI1992
aI1993
aI1994
aI1995
aI1996
aI1997
aI1998
aI1999
aI2000
aI2001
aI2002
aI2003
aI2004
aI2005
aI2006
aI2007
aI2008
aI2009
aI2010
aI2011
aI2012
aI2013
aI2014
aI2015
aI2016
aasS'session_home'
p152
S'/home2/jcjeong/project/stanalyzer0/stanalyzer/media/jcjeong/201302121335439526451FfZph'
p153
sS'num_frame'
p154
V20
p155
sS'trajectory'
p156
(lp157
Vstep6_1.dcd
p158
aVstep6_2.dcd
p159
aVstep6_3.dcd
p160
aVstep6_10.dcd
p161
aVstep6_11.dcd
p162
aVstep6_100.dcd
p163
aVstep6_101.dcd
p164
aVstep6_200.dcd
p165
aVstep7_1.dcd
p166
aVstep7_2.dcd
p167
aVstep7_3.dcd
p168
aVstep7_4.dcd
p169
aVstep7_5.dcd
p170
aVstep7_10.dcd
p171
aVstep7_20.dcd
p172
aVstep7_30.dcd
p173
aVstep7_40.dcd
p174
aVstep7_50.dcd
p175
aVstep7_100.dcd
p176
aVstep7_110.dcd
p177
aVstep7_633.dcd
p178
aVstep7_669.dcd
p179
aVstep7_670.dcd
p180
aVstep7_671.dcd
p181
aVstep7_672.dcd
p182
aVstep7_673.dcd
p183
aVstep7_674.dcd
p184
aVstep7_675.dcd
p185
aVstep7_676.dcd
p186
aVstep7_677.dcd
p187
aVstep7_678.dcd
p188
aVstep7_1000.dcd
p189
aVstep10_1.dcd
p190
aVstep10_2.dcd
p191
aVstep10_10.dcd
p192
aVstep11_1.dcd
p193
aVstep11_2.dcd
p194
aVstep11_10.dcd
p195
aVstep100_1.dcd
p196
aVstep100_2.dcd
p197
aVstep100_10.dcd
p198
asS'paraInfo'
p199
(lp200
(lp201
VNumber of Parameters
p202
aVFrame interval
p203
aVOutput name
p204
aa(lp205
VNumber of Parameters
p206
aVFrame interval
p207
aVOutput name
p208
aVSegment ID
p209
aVSegment Name
p210
aVStart Residue
p211
aVTerminal Residue
p212
aasS'job_pkey'
p213
(I13
tp214
sS'path_output'
p215
S'/home2/jcjeong/project/stanalyzer0/stanalyzer/media/jcjeong/'
p216
sS'path_python'
p217
V/home/sunhwan/local/python/bin/python
p218
sS'job_title'
p219
Vanalyzing trajectory
p220
sS'pkey'
p221
V1
p222
sS'num_ps'
p223
V2.0
p224
sS'pbs_home'
p225
S'/home2/jcjeong/project/stanalyzer0/stanalyzer/media/jcjeong/201302121335439526451FfZph/pbs'
p226
sS'base_path'
p227
S'/home2/jcjeong/project/stanalyzer1/stanalyzer/trajectory/'
p228
sS'date'
p229
S'20130212133543952645'
p230
sS'pbs'
p231
V#!/bin/bash\u000a#PBS -l nodes=1:ppn=1\u000a#PBS -l mem=500mb\u000a#PBS -l walltime=72:00:00\u000a#PBS -l cput=72:00:00\u000a#PBS -q default\u000a
p232
sS'analyzer_home'
p233
S'/home2/jcjeong/project/stanalyzer0/stanalyzer/static/analyzers'
p234
sS'num_files'
p235
V41
p236
sS'ptitle'
p237
Vcalculating helix
p238
sS'structure_file'
p239
Vstep5_assembly.psf
p240
sS'dbName'
p241
S'/home2/jcjeong/project/stanalyzer0/stanalyzer/stanalyzer.db'
p242
s.