(dp0
S'output_home'
p1
S'/home2/jcjeong/project/stanalyzer0/stanalyzer/media/jcjeong/20130503135738075574W1OEhC/'
p2
sS'num_atoms'
p3
V28935
p4
sS'media_home'
p5
S'/home2/jcjeong/project/stanalyzer0/stanalyzer/media'
p6
sS'funcName'
p7
(lp8
Vordpara_dopc
p9
asS'Paras'
p10
(lp11
(lp12
(lp13
I4
aa(lp14
V1
p15
aa(lp16
Vordpara_dopc.dat
p17
aa(lp18
VZ
p19
aa(lp20
V28935
p21
aaasS'para_pkeys'
p22
(lp23
(lp24
I5707
aI5708
aI5709
aI5710
aI5711
aasS'session_home'
p25
S'/home2/jcjeong/project/stanalyzer0/stanalyzer/media/jcjeong/20130503135738075574W1OEhC'
p26
sS'num_frame'
p27
V40
p28
sS'trajectory'
p29
(lp30
Vstep7_330.dcd
p31
aVstep7_331.dcd
p32
asS'paraInfo'
p33
(lp34
(lp35
VNumber of Parameters
p36
aVFrame interval
p37
aVOutput name
p38
aVAxis
p39
aVTotal number of atoms
p40
aasS'job_pkey'
p41
(I319
tp42
sS'path_output'
p43
S'/home2/jcjeong/project/stanalyzer0/stanalyzer/media/jcjeong/'
p44
sS'path_python'
p45
V/home/sunhwan/local/python/bin/python
p46
sS'job_title'
p47
Vanalyzing trajectory
p48
sS'pkey'
p49
V1
p50
sS'num_ps'
p51
V5.0
p52
sS'pdb_file'
p53
Vstep5_assembly.pdb
p54
sS'pbs_home'
p55
S'/home2/jcjeong/project/stanalyzer0/stanalyzer/media/jcjeong/20130503135738075574W1OEhC/pbs'
p56
sS'base_path'
p57
S'/home2/jcjeong/project/charmm/emilia/'
p58
sS'date'
p59
S'20130503135738075574'
p60
sS'pbs'
p61
V#!/bin/bash\u000a#PBS -l nodes=1:ppn=1\u000a#PBS -l mem=500mb\u000a#PBS -l walltime=72:00:00\u000a#PBS -l cput=72:00:00\u000a#PBS -q charmm_nmr\u000a
p62
sS'analyzer_home'
p63
S'/home2/jcjeong/project/stanalyzer0/stanalyzer/static/analyzers'
p64
sS'num_files'
p65
V2
p66
sS'ptitle'
p67
Vcalculating helix
p68
sS'structure_file'
p69
Vstep5_assembly.xplor_ext.psf
p70
sS'dbName'
p71
S'/home2/jcjeong/project/stanalyzer0/stanalyzer/stanalyzer.db'
p72
s.