(dp0
S'output_home'
p1
S'/home2/jcjeong/project/stanalyzer0/stanalyzer/media/jcjeong/20130409155309492303T173HC/'
p2
sS'num_atoms'
p3
V36855
p4
sS'media_home'
p5
S'/home2/jcjeong/project/stanalyzer0/stanalyzer/media'
p6
sS'funcName'
p7
(lp8
Vdensity
p9
asS'Paras'
p10
(lp11
(lp12
(lp13
I8
aa(lp14
V1
p15
ag15
aa(lp16
Vdensity_all.dat
p17
aVdensity_lipid_head.dat
p18
aa(lp19
VZ
p20
ag20
aa(lp21
V-77
p22
aV-77
p23
aa(lp24
V77
p25
aV77
p26
aa(lp27
g15
ag15
aa(lp28
Vall
p29
aVsegid MEMB and ( name P or name N or (name C1* and not name C1) or name O1* )
p30
aa(lp31
V36855
p32
aV36855
p33
aaasS'para_pkeys'
p34
(lp35
(lp36
I3764
aI3765
aI3766
aI3767
aI3768
aI3769
aI3770
aI3771
aI3772
aI3773
aI3774
aI3775
aI3776
aI3777
aI3778
aI3779
aI3780
aasS'session_home'
p37
S'/home2/jcjeong/project/stanalyzer0/stanalyzer/media/jcjeong/20130409155309492303T173HC'
p38
sS'num_frame'
p39
V20
p40
sS'trajectory'
p41
(lp42
Vstep6_1.dcd
p43
asS'paraInfo'
p44
(lp45
(lp46
VNumber of Parameters
p47
aVFrame interval
p48
aVOutput name
p49
aVAxis
p50
aVMinimum value in the given axis
p51
aVMaximum value in the given axis
p52
aVBin size
p53
aVQuery
p54
aVTotal number of atoms
p55
aasS'job_pkey'
p56
(I148
tp57
sS'path_output'
p58
S'/home2/jcjeong/project/stanalyzer0/stanalyzer/media/jcjeong/'
p59
sS'path_python'
p60
V/home/sunhwan/local/python/bin/python
p61
sS'job_title'
p62
Vanalyzing trajectory
p63
sS'pkey'
p64
V1
p65
sS'num_ps'
p66
V2.0
p67
sS'pdb_file'
p68
Vstep7_691.pdb
p69
sS'pbs_home'
p70
S'/home2/jcjeong/project/stanalyzer0/stanalyzer/media/jcjeong/20130409155309492303T173HC/pbs'
p71
sS'base_path'
p72
S'/home2/jcjeong/project/stanalyzer1/stanalyzer/trajectory/'
p73
sS'date'
p74
S'20130409155309492303'
p75
sS'pbs'
p76
V#!/bin/bash\u000a#PBS -l nodes=1:ppn=1\u000a#PBS -l mem=500mb\u000a#PBS -l walltime=72:00:00\u000a#PBS -l cput=72:00:00\u000a#PBS -q charmm_nmr\u000a
p77
sS'analyzer_home'
p78
S'/home2/jcjeong/project/stanalyzer0/stanalyzer/static/analyzers'
p79
sS'num_files'
p80
V1
p81
sS'ptitle'
p82
Vcalculating helix
p83
sS'structure_file'
p84
Vstep5_assembly.psf
p85
sS'dbName'
p86
S'/home2/jcjeong/project/stanalyzer0/stanalyzer/stanalyzer.db'
p87
s.