(dp0
S'output_home'
p1
S'/home2/jcjeong/project/stanalyzer0/stanalyzer/media/jcjeong/20130212135022242593tVJDbu/'
p2
sS'num_atoms'
p3
V36855
p4
sS'media_home'
p5
S'/home2/jcjeong/project/stanalyzer0/stanalyzer/media'
p6
sS'funcName'
p7
(lp8
Vbox
p9
aVhelix_tilt
p10
asS'Paras'
p11
(lp12
(lp13
(lp14
I2
aa(lp15
V1
p16
aa(lp17
Voutput.dat
p18
aaa(lp19
(lp20
I6
aa(lp21
g16
ag16
ag16
ag16
ag16
ag16
ag16
ag16
ag16
ag16
ag16
ag16
ag16
ag16
ag16
ag16
ag16
ag16
ag16
ag16
ag16
ag16
ag16
ag16
ag16
ag16
ag16
ag16
ag16
ag16
ag16
ag16
ag16
ag16
ag16
ag16
ag16
ag16
ag16
ag16
aa(lp22
Voutput.dat
p23
aVoutput1.dat
p24
aVoutput2.dat
p25
aVoutput3.dat
p26
aVoutput4.dat
p27
aVoutput5.dat
p28
aVoutput6.dat
p29
aVoutput7.dat
p30
aVoutput8.dat
p31
aVoutput9.dat
p32
aVoutput10.dat
p33
aVoutput11.dat
p34
aVoutput12.dat
p35
aVoutput13.dat
p36
aVoutput14.dat
p37
aVoutput15.dat
p38
aVoutput16.dat
p39
aVoutput17.dat
p40
aVoutput18.dat
p41
aVoutput19.dat
p42
aVoutput20.dat
p43
aVoutput21.dat
p44
aVoutput22.dat
p45
aVoutput23.dat
p46
aVoutput24.dat
p47
aVoutput25.dat
p48
aVoutput26.dat
p49
aVoutput27.dat
p50
aVoutput28.dat
p51
aVoutput29.dat
p52
aVoutput30.dat
p53
aVoutput31.dat
p54
aVoutput32.dat
p55
aVoutput33.dat
p56
aVoutput34.dat
p57
aVoutput35.dat
p58
aVoutput36.dat
p59
aVoutput37.dat
p60
aVoutput38.dat
p61
aVoutput39.dat
p62
aa(lp63
V0
p64
ag64
ag64
ag64
ag64
ag64
ag64
ag64
ag64
ag64
ag64
ag64
ag64
ag64
ag64
ag64
ag64
ag64
ag64
ag64
ag64
ag64
ag64
ag64
ag64
ag64
ag64
ag64
ag64
ag64
ag64
ag64
ag64
ag64
ag64
ag64
ag64
ag64
ag64
ag64
aa(lp65
VPROA
p66
aVPROA
p67
aVPROA
p68
aVPROA
p69
aVPROA
p70
aVPROA
p71
aVPROA
p72
aVPROA
p73
aVPROA
p74
aVPROA
p75
aVPROA
p76
aVPROA
p77
aVPROA
p78
aVPROA
p79
aVPROA
p80
aVPROA
p81
aVPROA
p82
aVPROA
p83
aVPROA
p84
aVPROA
p85
aVPROA
p86
aVPROA
p87
aVPROA
p88
aVPROA
p89
aVPROA
p90
aVPROA
p91
aVPROA
p92
aVPROA
p93
aVPROA
p94
aVPROA
p95
aVPROA
p96
aVPROA
p97
aVPROA
p98
aVPROA
p99
aVPROA
p100
aVPROA
p101
aVPROA
p102
aVPROA
p103
aVPROA
p104
aVPROA
p105
aa(lp106
g16
ag16
ag16
ag16
ag16
ag16
ag16
ag16
ag16
ag16
ag16
ag16
ag16
ag16
ag16
ag16
ag16
ag16
ag16
ag16
ag16
ag16
ag16
ag16
ag16
ag16
ag16
ag16
ag16
ag16
ag16
ag16
ag16
ag16
ag16
ag16
ag16
ag16
ag16
ag16
aa(lp107
V23
p108
aV46
p109
aV15
p110
aV19
p111
aV20
p112
aV30
p113
aV40
p114
aV46
p115
aV28
p116
aV38
p117
aV18
p118
aV19
p119
aV20
p120
aV21
p121
aV22
p122
aV23
p123
aV24
p124
aV25
p125
aV26
p126
aV27
p127
aV28
p128
aV29
p129
aV30
p130
aV31
p131
aV32
p132
aV33
p133
aV34
p134
aV35
p135
aV36
p136
aV37
p137
aV38
p138
aV39
p139
aV40
p140
aV41
p141
aV42
p142
aV43
p143
aV44
p144
aV45
p145
aV46
p146
aV17
p147
aaasS'para_pkeys'
p148
(lp149
(lp150
I2261
aI2262
aI2263
aa(lp151
I2264
aI2265
aI2266
aI2267
aI2268
aI2269
aI2270
aI2271
aI2272
aI2273
aI2274
aI2275
aI2276
aI2277
aI2278
aI2279
aI2280
aI2281
aI2282
aI2283
aI2284
aI2285
aI2286
aI2287
aI2288
aI2289
aI2290
aI2291
aI2292
aI2293
aI2294
aI2295
aI2296
aI2297
aI2298
aI2299
aI2300
aI2301
aI2302
aI2303
aI2304
aI2305
aI2306
aI2307
aI2308
aI2309
aI2310
aI2311
aI2312
aI2313
aI2314
aI2315
aI2316
aI2317
aI2318
aI2319
aI2320
aI2321
aI2322
aI2323
aI2324
aI2325
aI2326
aI2327
aI2328
aI2329
aI2330
aI2331
aI2332
aI2333
aI2334
aI2335
aI2336
aI2337
aI2338
aI2339
aI2340
aI2341
aI2342
aI2343
aI2344
aI2345
aI2346
aI2347
aI2348
aI2349
aI2350
aI2351
aI2352
aI2353
aI2354
aI2355
aI2356
aI2357
aI2358
aI2359
aI2360
aI2361
aI2362
aI2363
aI2364
aI2365
aI2366
aI2367
aI2368
aI2369
aI2370
aI2371
aI2372
aI2373
aI2374
aI2375
aI2376
aI2377
aI2378
aI2379
aI2380
aI2381
aI2382
aI2383
aI2384
aI2385
aI2386
aI2387
aI2388
aI2389
aI2390
aI2391
aI2392
aI2393
aI2394
aI2395
aI2396
aI2397
aI2398
aI2399
aI2400
aI2401
aI2402
aI2403
aI2404
aI2405
aI2406
aI2407
aI2408
aI2409
aI2410
aI2411
aI2412
aI2413
aI2414
aI2415
aI2416
aI2417
aI2418
aI2419
aI2420
aI2421
aI2422
aI2423
aI2424
aI2425
aI2426
aI2427
aI2428
aI2429
aI2430
aI2431
aI2432
aI2433
aI2434
aI2435
aI2436
aI2437
aI2438
aI2439
aI2440
aI2441
aI2442
aI2443
aI2444
aI2445
aI2446
aI2447
aI2448
aI2449
aI2450
aI2451
aI2452
aI2453
aI2454
aI2455
aI2456
aI2457
aI2458
aI2459
aI2460
aI2461
aI2462
aI2463
aI2464
aI2465
aI2466
aI2467
aI2468
aI2469
aI2470
aI2471
aI2472
aI2473
aI2474
aI2475
aI2476
aI2477
aI2478
aI2479
aI2480
aI2481
aI2482
aI2483
aI2484
aI2485
aI2486
aI2487
aI2488
aI2489
aI2490
aI2491
aI2492
aI2493
aI2494
aI2495
aI2496
aI2497
aI2498
aI2499
aI2500
aI2501
aI2502
aI2503
aI2504
aasS'session_home'
p152
S'/home2/jcjeong/project/stanalyzer0/stanalyzer/media/jcjeong/20130212135022242593tVJDbu'
p153
sS'num_frame'
p154
V20
p155
sS'trajectory'
p156
(lp157
Vstep6_1.dcd
p158
aVstep6_2.dcd
p159
aVstep6_3.dcd
p160
aVstep6_10.dcd
p161
aVstep6_11.dcd
p162
aVstep6_100.dcd
p163
aVstep6_101.dcd
p164
aVstep6_200.dcd
p165
aVstep7_1.dcd
p166
aVstep7_2.dcd
p167
aVstep7_3.dcd
p168
aVstep7_4.dcd
p169
aVstep7_5.dcd
p170
aVstep7_10.dcd
p171
aVstep7_20.dcd
p172
aVstep7_30.dcd
p173
aVstep7_40.dcd
p174
aVstep7_50.dcd
p175
aVstep7_100.dcd
p176
aVstep7_110.dcd
p177
aVstep7_633.dcd
p178
aVstep7_669.dcd
p179
aVstep7_670.dcd
p180
aVstep7_671.dcd
p181
aVstep7_672.dcd
p182
aVstep7_673.dcd
p183
aVstep7_674.dcd
p184
aVstep7_675.dcd
p185
aVstep7_676.dcd
p186
aVstep7_677.dcd
p187
aVstep7_678.dcd
p188
aVstep7_1000.dcd
p189
aVstep10_1.dcd
p190
aVstep10_2.dcd
p191
aVstep10_10.dcd
p192
aVstep11_1.dcd
p193
aVstep11_2.dcd
p194
aVstep11_10.dcd
p195
aVstep100_1.dcd
p196
aVstep100_2.dcd
p197
aVstep100_10.dcd
p198
asS'paraInfo'
p199
(lp200
(lp201
VNumber of Parameters
p202
aVFrame interval
p203
aVOutput name
p204
aa(lp205
VNumber of Parameters
p206
aVFrame interval
p207
aVOutput name
p208
aVSegment ID
p209
aVSegment Name
p210
aVStart Residue
p211
aVTerminal Residue
p212
aasS'job_pkey'
p213
(I15
tp214
sS'path_output'
p215
S'/home2/jcjeong/project/stanalyzer0/stanalyzer/media/jcjeong/'
p216
sS'path_python'
p217
V/home/sunhwan/local/python/bin/python
p218
sS'job_title'
p219
Vanalyzing trajectory
p220
sS'pkey'
p221
V1
p222
sS'num_ps'
p223
V2.0
p224
sS'pbs_home'
p225
S'/home2/jcjeong/project/stanalyzer0/stanalyzer/media/jcjeong/20130212135022242593tVJDbu/pbs'
p226
sS'base_path'
p227
S'/home2/jcjeong/project/stanalyzer1/stanalyzer/trajectory/'
p228
sS'date'
p229
S'20130212135022242593'
p230
sS'pbs'
p231
V#!/bin/bash\u000a#PBS -l nodes=1:ppn=1\u000a#PBS -l mem=500mb\u000a#PBS -l walltime=72:00:00\u000a#PBS -l cput=72:00:00\u000a#PBS -q default\u000a
p232
sS'analyzer_home'
p233
S'/home2/jcjeong/project/stanalyzer0/stanalyzer/static/analyzers'
p234
sS'num_files'
p235
V41
p236
sS'ptitle'
p237
Vcalculating helix
p238
sS'structure_file'
p239
Vstep5_assembly.psf
p240
sS'dbName'
p241
S'/home2/jcjeong/project/stanalyzer0/stanalyzer/stanalyzer.db'
p242
s.