(dp0
S'output_home'
p1
S'/home2/jcjeong/project/stanalyzer0/stanalyzer/media/jcjeong/20130213103431065261kAq7kr/'
p2
sS'num_atoms'
p3
V36855
p4
sS'media_home'
p5
S'/home2/jcjeong/project/stanalyzer0/stanalyzer/media'
p6
sS'funcName'
p7
(lp8
Vbox
p9
asS'Paras'
p10
(lp11
(lp12
(lp13
I2
aa(lp14
V2
p15
aa(lp16
Voutput.dat
p17
aaasS'para_pkeys'
p18
(lp19
(lp20
I2577
aI2578
aI2579
aasS'session_home'
p21
S'/home2/jcjeong/project/stanalyzer0/stanalyzer/media/jcjeong/20130213103431065261kAq7kr'
p22
sS'num_frame'
p23
V10
p24
sS'trajectory'
p25
(lp26
Vstep6_1.dcd
p27
aVstep6_2.dcd
p28
aVstep6_3.dcd
p29
aVstep6_10.dcd
p30
aVstep6_11.dcd
p31
aVstep6_100.dcd
p32
aVstep6_101.dcd
p33
aVstep6_200.dcd
p34
aVstep7_1.dcd
p35
asS'paraInfo'
p36
(lp37
(lp38
VNumber of Parameters
p39
aVFrame interval
p40
aVOutput name
p41
aasS'job_pkey'
p42
(I40
tp43
sS'path_output'
p44
S'/home2/jcjeong/project/stanalyzer0/stanalyzer/media/jcjeong/'
p45
sS'path_python'
p46
V/home/sunhwan/local/python/bin/python
p47
sS'job_title'
p48
Vanalyzing trajectory
p49
sS'pkey'
p50
V1
p51
sS'num_ps'
p52
V2.0
p53
sS'pbs_home'
p54
S'/home2/jcjeong/project/stanalyzer0/stanalyzer/media/jcjeong/20130213103431065261kAq7kr/pbs'
p55
sS'base_path'
p56
S'/home2/jcjeong/project/stanalyzer1/stanalyzer/trajectory/'
p57
sS'date'
p58
S'20130213103431065261'
p59
sS'pbs'
p60
V#!/bin/bash\u000a#PBS -l nodes=1:ppn=1\u000a#PBS -l mem=500mb\u000a#PBS -l walltime=72:00:00\u000a#PBS -l cput=72:00:00\u000a#PBS -q default\u000a
p61
sS'analyzer_home'
p62
S'/home2/jcjeong/project/stanalyzer0/stanalyzer/static/analyzers'
p63
sS'num_files'
p64
V9
p65
sS'ptitle'
p66
Vcalculating helix
p67
sS'structure_file'
p68
Vstep5_assembly.psf
p69
sS'dbName'
p70
S'/home2/jcjeong/project/stanalyzer0/stanalyzer/stanalyzer.db'
p71
s.