(dp0
S'output_home'
p1
S'/home2/jcjeong/project/stanalyzer0/stanalyzer/media/jcjeong/201306031428366870479CRpoZ/'
p2
sS'num_atoms'
p3
V731
p4
sS'media_home'
p5
S'/home2/jcjeong/project/stanalyzer0/stanalyzer/media'
p6
sS'funcName'
p7
(lp8
Vrmsf
p9
asS'Paras'
p10
(lp11
(lp12
(lp13
I5
aa(lp14
V1
p15
aa(lp16
Vrmsf_ouput.dat
p17
aa(lp18
Vname CA
p19
aa(lp20
Vsegid PROA
p21
aa(lp22
VFalse
p23
aaasS'para_pkeys'
p24
(lp25
(lp26
I6954
aI6955
aI6956
aI6957
aI6958
aI6959
aasS'session_home'
p27
S'/home2/jcjeong/project/stanalyzer0/stanalyzer/media/jcjeong/201306031428366870479CRpoZ'
p28
sS'num_frame'
p29
V500
p30
sS'trajectory'
p31
(lp32
Vstep6.3_prod.dcd
p33
asS'paraInfo'
p34
(lp35
(lp36
VNumber of Parameters
p37
aVFrame interval
p38
aVOutput name
p39
aVAlign Selection
p40
aVRMSD Selection
p41
aVCalculate average on residue
p42
aasS'job_pkey'
p43
(I404
tp44
sS'path_output'
p45
S'/home2/jcjeong/project/stanalyzer0/stanalyzer/media/jcjeong/'
p46
sS'path_python'
p47
V/home/sunhwan/local/python/bin/python
p48
sS'job_title'
p49
Vanalyzing trajectory
p50
sS'pkey'
p51
V1
p52
sS'num_ps'
p53
V100.0
p54
sS'pdb_file'
p55
Vstep3_pbcsetup.pdb
p56
sS'pbs_home'
p57
S'/home2/jcjeong/project/stanalyzer0/stanalyzer/media/jcjeong/201306031428366870479CRpoZ/pbs'
p58
sS'base_path'
p59
S'/home2/qiyifei/work/paceCG/read_martini/solution/charmm-gui/namd/'
p60
sS'date'
p61
S'20130603142836687047'
p62
sS'pbs'
p63
V#!/bin/bash\u000a#PBS -l nodes=1:ppn=1\u000a#PBS -l mem=500mb\u000a#PBS -l walltime=72:00:00\u000a#PBS -l cput=72:00:00\u000a#PBS -q charmm_nmr\u000a
p64
sS'analyzer_home'
p65
S'/home2/jcjeong/project/stanalyzer0/stanalyzer/static/analyzers'
p66
sS'num_files'
p67
V1
p68
sS'ptitle'
p69
Vcalculating helix
p70
sS'structure_file'
p71
Vstep3_pbcsetup.psf
p72
sS'dbName'
p73
S'/home2/jcjeong/project/stanalyzer0/stanalyzer/stanalyzer.db'
p74
s.