(dp0
S'pkey'
p1
V2
p2
sS'pbs_home'
p3
S'/home2/jcjeong/project/stanalyzer0/stanalyzer/media/jcjeong/20130108160704797165teFcnz/pbs'
p4
sS'pbs'
p5
V#!/bin/csh\u000a#PBS -l nodes=1:ppn=1\u000a#PBS -l mem=500mb\u000a#PBS -l walltime=72:00:00\u000a#PBS -l cput=72:00:00\u000a#PBS -q default\u000a
p6
sS'job_pkey'
p7
(I30
tp8
sS'output_home'
p9
S'/home2/jcjeong/project/stanalyzer0/stanalyzer/media/jcjeong/20130108160704797165teFcnz/'
p10
sS'analyzer_home'
p11
S'/home2/jcjeong/project/stanalyzer0/stanalyzer/static/analyzers'
p12
sS'paraInfo'
p13
(lp14
(lp15
VNumber of Parameters
p16
aa(lp17
VNumber of Parameters
p18
aVSegment ID
p19
aVSegment Name
p20
aVStart Residue
p21
aVTerminal Residue
p22
aasS'media_home'
p23
S'/home2/jcjeong/project/stanalyzer0/stanalyzer/media'
p24
sS'base_path'
p25
S'/home2/jcjeong/project/stanalyzer1/stanalyzer/trajectory/'
p26
sS'path_python'
p27
V/home/sunhwan/local/python/bin/python
p28
sS'Paras'
p29
(lp30
(lp31
V0
p32
aa(lp33
V4
p34
aV0
p35
aVPROA
p36
aV1
p37
aV41
p38
aasS'para_pkeys'
p39
(lp40
(lp41
I83
aa(lp42
I84
aI85
aI86
aI87
aI88
aasS'session_home'
p43
S'/home2/jcjeong/project/stanalyzer0/stanalyzer/media/jcjeong/20130108160704797165teFcnz'
p44
sS'ptitle'
p45
Vproject1
p46
sS'structure_file'
p47
Vstep5_assembly.psf
p48
sS'trajectory'
p49
(lp50
Vstep7_633.dcd
p51
asS'date'
p52
S'20130108160704797165'
p53
sS'funcName'
p54
(lp55
Vbox
p56
aVhelix_tilt
p57
asS'path_output'
p58
S'/home2/jcjeong/project/stanalyzer0/stanalyzer/media/jcjeong/'
p59
sS'dbName'
p60
S'/home2/jcjeong/project/stanalyzer0/stanalyzer/stanalyzer.db'
p61
sS'job_title'
p62
Vanalyzing trajectory
p63
s.