(dp0
S'pkey'
p1
V1
p2
sS'pbs_home'
p3
S'/home2/jcjeong/project/stanalyzer0/stanalyzer/media/jcjeong/20130111161800680160SvjX34/pbs'
p4
sS'pbs'
p5
V#!/bin/csh\u000a#PBS -l nodes=1:ppn=1\u000a#PBS -l mem=500mb\u000a#PBS -l walltime=72:00:00\u000a#PBS -l cput=72:00:00\u000a#PBS -q default\u000a
p6
sS'job_pkey'
p7
(I13
tp8
sS'output_home'
p9
S'/home2/jcjeong/project/stanalyzer0/stanalyzer/media/jcjeong/20130111161800680160SvjX34/'
p10
sS'analyzer_home'
p11
S'/home2/jcjeong/project/stanalyzer0/stanalyzer/static/analyzers'
p12
sS'paraInfo'
p13
(lp14
(lp15
VNumber of Parameters
p16
aa(lp17
VNumber of Parameters
p18
aVSegment ID
p19
aVSegment Name
p20
aVStart Residue
p21
aVTerminal Residue
p22
aasS'media_home'
p23
S'/home2/jcjeong/project/stanalyzer0/stanalyzer/media'
p24
sS'base_path'
p25
S'/home2/jcjeong/project/stanalyzer1/stanalyzer/trajectory/'
p26
sS'path_python'
p27
V/home/sunhwan/local/python/bin/python
p28
sS'Paras'
p29
(lp30
(lp31
V0
p32
aa(lp33
V4
p34
aV0
p35
aVPROA
p36
aV1
p37
ag34
aasS'para_pkeys'
p38
(lp39
(lp40
I40
aa(lp41
I41
aI42
aI43
aI44
aI45
aasS'session_home'
p42
S'/home2/jcjeong/project/stanalyzer0/stanalyzer/media/jcjeong/20130111161800680160SvjX34'
p43
sS'ptitle'
p44
Vprj
p45
sS'structure_file'
p46
Vstep5_assembly.psf
p47
sS'trajectory'
p48
(lp49
Vstep7_633.dcd
p50
aVstep7_669.dcd
p51
aVstep7_670.dcd
p52
asS'date'
p53
S'20130111161800680160'
p54
sS'funcName'
p55
(lp56
Vbox
p57
aVhelix_tilt
p58
asS'path_output'
p59
S'/home2/jcjeong/project/stanalyzer0/stanalyzer/media/jcjeong/'
p60
sS'dbName'
p61
S'/home2/jcjeong/project/stanalyzer0/stanalyzer/stanalyzer.db'
p62
sS'job_title'
p63
Vanalyzing trajectory
p64
s.