(dp0
S'output_home'
p1
S'/home2/jcjeong/project/stanalyzer0/stanalyzer/media/jcjeong/201305311107599858926FUCm1/'
p2
sS'num_atoms'
p3
V28935
p4
sS'media_home'
p5
S'/home2/jcjeong/project/stanalyzer0/stanalyzer/media'
p6
sS'funcName'
p7
(lp8
Vdensity
p9
aVdensity
p10
aVdensity
p11
aVdensity
p12
aVdensity_vector
p13
aVvector_selection
p14
asS'Paras'
p15
(lp16
(lp17
(lp18
I8
aa(lp19
V1
p20
aa(lp21
Vdensity_all.dat
p22
aa(lp23
VZ
p24
aa(lp25
V-42
p26
aa(lp27
V42
p28
aa(lp29
g20
aa(lp30
Vall
p31
aa(lp32
V16170
p33
aaa(lp34
(lp35
I8
aa(lp36
g20
aa(lp37
Vdensity_lipid_head.dat
p38
aa(lp39
g24
aa(lp40
V-42
p41
aa(lp42
V42
p43
aa(lp44
g20
aa(lp45
Vsegid MEMB and ( name P or name N or (name C1* and not name C1) or name O1* )
p46
aa(lp47
V16170
p48
aaa(lp49
(lp50
I8
aa(lp51
g20
aa(lp52
Vdensity_lipid_tail.dat
p53
aa(lp54
g24
aa(lp55
V-42
p56
aa(lp57
V42
p58
aa(lp59
g20
aa(lp60
Vsegid MEMB and ( name C2* or name C3* ) and not ( name C21 or  name C31 )
p61
aa(lp62
V16170
p63
aaa(lp64
(lp65
I8
aa(lp66
g20
aa(lp67
Vdensity_water.dat
p68
aa(lp69
g24
aa(lp70
V-42
p71
aa(lp72
V42
p73
aa(lp74
g20
aa(lp75
Vsegid TIP3 and name OH2
p76
aa(lp77
V16170
p78
aaa(lp79
(lp80
I8
aa(lp81
g20
aa(lp82
Vdensity_water_dipole.dat
p83
aa(lp84
g24
aa(lp85
V-42
p86
aa(lp87
V42
p88
aa(lp89
g20
aa(lp90
Vsegid TIP3
p91
aa(lp92
V16170
p93
aaa(lp94
(lp95
I8
aa(lp96
g20
aa(lp97
Vdensity_vector.dat
p98
aa(lp99
g24
aa(lp100
V-42
p101
aa(lp102
V42
p103
aa(lp104
g20
aa(lp105
Vsegid MEMB and name P
p106
aa(lp107
V16170
p108
aaasS'para_pkeys'
p109
(lp110
(lp111
I6393
aI6394
aI6395
aI6396
aI6397
aI6398
aI6399
aI6400
aI6401
aa(lp112
I6393
aI6394
aI6395
aI6396
aI6397
aI6398
aI6399
aI6400
aI6401
aI6402
aI6403
aI6404
aI6405
aI6406
aI6407
aI6408
aI6409
aI6410
aa(lp113
I6393
aI6394
aI6395
aI6396
aI6397
aI6398
aI6399
aI6400
aI6401
aI6402
aI6403
aI6404
aI6405
aI6406
aI6407
aI6408
aI6409
aI6410
aI6411
aI6412
aI6413
aI6414
aI6415
aI6416
aI6417
aI6418
aI6419
aa(lp114
I6393
aI6394
aI6395
aI6396
aI6397
aI6398
aI6399
aI6400
aI6401
aI6402
aI6403
aI6404
aI6405
aI6406
aI6407
aI6408
aI6409
aI6410
aI6411
aI6412
aI6413
aI6414
aI6415
aI6416
aI6417
aI6418
aI6419
aI6420
aI6421
aI6422
aI6423
aI6424
aI6425
aI6426
aI6427
aI6428
aa(lp115
I6429
aI6430
aI6431
aI6432
aI6433
aI6434
aI6435
aI6436
aI6437
aa(lp116
I6438
aI6439
aI6440
aI6441
aI6442
aI6443
aI6444
aI6445
aI6446
aasS'session_home'
p117
S'/home2/jcjeong/project/stanalyzer0/stanalyzer/media/jcjeong/201305311107599858926FUCm1'
p118
sS'num_frame'
p119
V40
p120
sS'trajectory'
p121
(lp122
Vstep7_150.dcd
p123
aVstep7_151.dcd
p124
aVstep7_152.dcd
p125
aVstep7_153.dcd
p126
aVstep7_154.dcd
p127
aVstep7_155.dcd
p128
aVstep7_156.dcd
p129
aVstep7_157.dcd
p130
aVstep7_158.dcd
p131
aVstep7_159.dcd
p132
aVstep7_160.dcd
p133
aVstep7_161.dcd
p134
aVstep7_162.dcd
p135
aVstep7_163.dcd
p136
aVstep7_164.dcd
p137
aVstep7_165.dcd
p138
aVstep7_166.dcd
p139
aVstep7_167.dcd
p140
aVstep7_168.dcd
p141
aVstep7_169.dcd
p142
aVstep7_170.dcd
p143
aVstep7_171.dcd
p144
aVstep7_172.dcd
p145
aVstep7_173.dcd
p146
aVstep7_174.dcd
p147
aVstep7_175.dcd
p148
aVstep7_176.dcd
p149
aVstep7_177.dcd
p150
aVstep7_178.dcd
p151
aVstep7_179.dcd
p152
aVstep7_180.dcd
p153
aVstep7_181.dcd
p154
aVstep7_182.dcd
p155
aVstep7_183.dcd
p156
aVstep7_184.dcd
p157
aVstep7_185.dcd
p158
aVstep7_186.dcd
p159
aVstep7_187.dcd
p160
aVstep7_188.dcd
p161
aVstep7_189.dcd
p162
aVstep7_190.dcd
p163
aVstep7_191.dcd
p164
aVstep7_192.dcd
p165
aVstep7_193.dcd
p166
aVstep7_194.dcd
p167
aVstep7_195.dcd
p168
aVstep7_196.dcd
p169
aVstep7_197.dcd
p170
aVstep7_198.dcd
p171
aVstep7_199.dcd
p172
aVstep7_200.dcd
p173
aVstep7_201.dcd
p174
aVstep7_202.dcd
p175
aVstep7_203.dcd
p176
aVstep7_204.dcd
p177
aVstep7_205.dcd
p178
aVstep7_206.dcd
p179
aVstep7_207.dcd
p180
aVstep7_208.dcd
p181
aVstep7_209.dcd
p182
aVstep7_210.dcd
p183
aVstep7_211.dcd
p184
aVstep7_212.dcd
p185
aVstep7_213.dcd
p186
aVstep7_214.dcd
p187
aVstep7_215.dcd
p188
aVstep7_216.dcd
p189
aVstep7_217.dcd
p190
aVstep7_218.dcd
p191
aVstep7_219.dcd
p192
aVstep7_220.dcd
p193
aVstep7_221.dcd
p194
aVstep7_222.dcd
p195
aVstep7_223.dcd
p196
aVstep7_224.dcd
p197
aVstep7_225.dcd
p198
aVstep7_226.dcd
p199
aVstep7_227.dcd
p200
aVstep7_228.dcd
p201
aVstep7_229.dcd
p202
aVstep7_230.dcd
p203
aVstep7_231.dcd
p204
aVstep7_232.dcd
p205
aVstep7_233.dcd
p206
aVstep7_234.dcd
p207
aVstep7_235.dcd
p208
aVstep7_236.dcd
p209
aVstep7_237.dcd
p210
aVstep7_238.dcd
p211
aVstep7_239.dcd
p212
aVstep7_240.dcd
p213
aVstep7_241.dcd
p214
aVstep7_242.dcd
p215
aVstep7_243.dcd
p216
aVstep7_244.dcd
p217
aVstep7_245.dcd
p218
aVstep7_246.dcd
p219
aVstep7_247.dcd
p220
aVstep7_248.dcd
p221
aVstep7_249.dcd
p222
aVstep7_250.dcd
p223
aVstep7_251.dcd
p224
aVstep7_252.dcd
p225
aVstep7_253.dcd
p226
aVstep7_254.dcd
p227
aVstep7_255.dcd
p228
aVstep7_256.dcd
p229
aVstep7_257.dcd
p230
aVstep7_258.dcd
p231
aVstep7_259.dcd
p232
aVstep7_260.dcd
p233
aVstep7_261.dcd
p234
aVstep7_262.dcd
p235
aVstep7_263.dcd
p236
aVstep7_264.dcd
p237
aVstep7_265.dcd
p238
aVstep7_266.dcd
p239
aVstep7_267.dcd
p240
aVstep7_268.dcd
p241
aVstep7_269.dcd
p242
aVstep7_270.dcd
p243
aVstep7_271.dcd
p244
aVstep7_272.dcd
p245
aVstep7_273.dcd
p246
aVstep7_274.dcd
p247
aVstep7_275.dcd
p248
aVstep7_276.dcd
p249
aVstep7_277.dcd
p250
aVstep7_278.dcd
p251
aVstep7_279.dcd
p252
aVstep7_280.dcd
p253
aVstep7_281.dcd
p254
aVstep7_282.dcd
p255
aVstep7_283.dcd
p256
aVstep7_284.dcd
p257
aVstep7_285.dcd
p258
aVstep7_286.dcd
p259
aVstep7_287.dcd
p260
aVstep7_288.dcd
p261
aVstep7_289.dcd
p262
aVstep7_290.dcd
p263
aVstep7_291.dcd
p264
aVstep7_292.dcd
p265
aVstep7_293.dcd
p266
aVstep7_294.dcd
p267
aVstep7_295.dcd
p268
aVstep7_296.dcd
p269
aVstep7_297.dcd
p270
aVstep7_298.dcd
p271
aVstep7_299.dcd
p272
aVstep7_300.dcd
p273
aVstep7_301.dcd
p274
aVstep7_302.dcd
p275
aVstep7_303.dcd
p276
aVstep7_304.dcd
p277
aVstep7_305.dcd
p278
aVstep7_306.dcd
p279
aVstep7_307.dcd
p280
aVstep7_308.dcd
p281
aVstep7_309.dcd
p282
aVstep7_310.dcd
p283
aVstep7_311.dcd
p284
aVstep7_312.dcd
p285
aVstep7_313.dcd
p286
aVstep7_314.dcd
p287
aVstep7_315.dcd
p288
aVstep7_316.dcd
p289
aVstep7_317.dcd
p290
aVstep7_318.dcd
p291
aVstep7_319.dcd
p292
aVstep7_320.dcd
p293
aVstep7_321.dcd
p294
aVstep7_322.dcd
p295
aVstep7_323.dcd
p296
aVstep7_324.dcd
p297
aVstep7_325.dcd
p298
aVstep7_326.dcd
p299
aVstep7_327.dcd
p300
aVstep7_328.dcd
p301
aVstep7_329.dcd
p302
aVstep7_330.dcd
p303
aVstep7_331.dcd
p304
aVstep7_332.dcd
p305
aVstep7_333.dcd
p306
aVstep7_334.dcd
p307
aVstep7_335.dcd
p308
aVstep7_336.dcd
p309
aVstep7_337.dcd
p310
aVstep7_338.dcd
p311
aVstep7_339.dcd
p312
aVstep7_340.dcd
p313
aVstep7_341.dcd
p314
aVstep7_342.dcd
p315
aVstep7_343.dcd
p316
aVstep7_344.dcd
p317
aVstep7_345.dcd
p318
aVstep7_346.dcd
p319
aVstep7_347.dcd
p320
aVstep7_348.dcd
p321
aVstep7_349.dcd
p322
aVstep7_350.dcd
p323
aVstep7_351.dcd
p324
aVstep7_352.dcd
p325
aVstep7_353.dcd
p326
aVstep7_354.dcd
p327
aVstep7_355.dcd
p328
aVstep7_356.dcd
p329
aVstep7_357.dcd
p330
aVstep7_358.dcd
p331
aVstep7_359.dcd
p332
aVstep7_360.dcd
p333
aVstep7_361.dcd
p334
aVstep7_362.dcd
p335
aVstep7_363.dcd
p336
aVstep7_364.dcd
p337
aVstep7_365.dcd
p338
aVstep7_366.dcd
p339
aVstep7_367.dcd
p340
aVstep7_368.dcd
p341
aVstep7_369.dcd
p342
aVstep7_370.dcd
p343
aVstep7_371.dcd
p344
aVstep7_372.dcd
p345
aVstep7_373.dcd
p346
aVstep7_374.dcd
p347
aVstep7_375.dcd
p348
aVstep7_376.dcd
p349
aVstep7_377.dcd
p350
aVstep7_378.dcd
p351
aVstep7_379.dcd
p352
aVstep7_380.dcd
p353
aVstep7_381.dcd
p354
aVstep7_382.dcd
p355
aVstep7_383.dcd
p356
aVstep7_384.dcd
p357
aVstep7_385.dcd
p358
aVstep7_386.dcd
p359
aVstep7_387.dcd
p360
aVstep7_388.dcd
p361
aVstep7_389.dcd
p362
aVstep7_390.dcd
p363
aVstep7_391.dcd
p364
aVstep7_392.dcd
p365
aVstep7_393.dcd
p366
aVstep7_394.dcd
p367
aVstep7_395.dcd
p368
aVstep7_396.dcd
p369
aVstep7_397.dcd
p370
aVstep7_398.dcd
p371
aVstep7_399.dcd
p372
aVstep7_400.dcd
p373
aVstep7_401.dcd
p374
aVstep7_402.dcd
p375
aVstep7_403.dcd
p376
aVstep7_404.dcd
p377
aVstep7_405.dcd
p378
aVstep7_406.dcd
p379
aVstep7_407.dcd
p380
aVstep7_408.dcd
p381
aVstep7_409.dcd
p382
aVstep7_410.dcd
p383
aVstep7_411.dcd
p384
aVstep7_412.dcd
p385
aVstep7_413.dcd
p386
aVstep7_414.dcd
p387
aVstep7_415.dcd
p388
aVstep7_416.dcd
p389
aVstep7_417.dcd
p390
aVstep7_418.dcd
p391
aVstep7_419.dcd
p392
aVstep7_420.dcd
p393
aVstep7_421.dcd
p394
aVstep7_422.dcd
p395
aVstep7_423.dcd
p396
aVstep7_424.dcd
p397
aVstep7_425.dcd
p398
aVstep7_426.dcd
p399
aVstep7_427.dcd
p400
aVstep7_428.dcd
p401
aVstep7_429.dcd
p402
aVstep7_430.dcd
p403
aVstep7_431.dcd
p404
aVstep7_432.dcd
p405
aVstep7_433.dcd
p406
aVstep7_434.dcd
p407
aVstep7_435.dcd
p408
aVstep7_436.dcd
p409
aVstep7_437.dcd
p410
aVstep7_438.dcd
p411
aVstep7_439.dcd
p412
aVstep7_440.dcd
p413
aVstep7_441.dcd
p414
aVstep7_442.dcd
p415
aVstep7_443.dcd
p416
aVstep7_444.dcd
p417
aVstep7_445.dcd
p418
aVstep7_446.dcd
p419
aVstep7_447.dcd
p420
aVstep7_448.dcd
p421
aVstep7_449.dcd
p422
aVstep7_450.dcd
p423
aVstep7_451.dcd
p424
aVstep7_452.dcd
p425
aVstep7_453.dcd
p426
aVstep7_454.dcd
p427
aVstep7_455.dcd
p428
aVstep7_456.dcd
p429
aVstep7_457.dcd
p430
aVstep7_458.dcd
p431
aVstep7_459.dcd
p432
aVstep7_460.dcd
p433
aVstep7_461.dcd
p434
aVstep7_462.dcd
p435
aVstep7_463.dcd
p436
aVstep7_464.dcd
p437
aVstep7_465.dcd
p438
aVstep7_466.dcd
p439
aVstep7_467.dcd
p440
aVstep7_468.dcd
p441
aVstep7_469.dcd
p442
aVstep7_470.dcd
p443
aVstep7_471.dcd
p444
aVstep7_472.dcd
p445
aVstep7_473.dcd
p446
aVstep7_474.dcd
p447
aVstep7_475.dcd
p448
aVstep7_476.dcd
p449
aVstep7_477.dcd
p450
aVstep7_478.dcd
p451
aVstep7_479.dcd
p452
aVstep7_480.dcd
p453
aVstep7_481.dcd
p454
aVstep7_482.dcd
p455
aVstep7_483.dcd
p456
aVstep7_484.dcd
p457
aVstep7_485.dcd
p458
aVstep7_486.dcd
p459
aVstep7_487.dcd
p460
aVstep7_488.dcd
p461
aVstep7_489.dcd
p462
aVstep7_490.dcd
p463
aVstep7_491.dcd
p464
aVstep7_492.dcd
p465
aVstep7_493.dcd
p466
aVstep7_494.dcd
p467
aVstep7_495.dcd
p468
aVstep7_496.dcd
p469
aVstep7_497.dcd
p470
aVstep7_498.dcd
p471
aVstep7_499.dcd
p472
aVstep7_500.dcd
p473
aVstep7_501.dcd
p474
aVstep7_502.dcd
p475
aVstep7_503.dcd
p476
aVstep7_504.dcd
p477
aVstep7_505.dcd
p478
aVstep7_506.dcd
p479
aVstep7_507.dcd
p480
aVstep7_508.dcd
p481
aVstep7_509.dcd
p482
aVstep7_510.dcd
p483
aVstep7_511.dcd
p484
aVstep7_512.dcd
p485
aVstep7_513.dcd
p486
aVstep7_514.dcd
p487
aVstep7_515.dcd
p488
aVstep7_516.dcd
p489
aVstep7_517.dcd
p490
aVstep7_518.dcd
p491
aVstep7_519.dcd
p492
aVstep7_520.dcd
p493
aVstep7_521.dcd
p494
aVstep7_522.dcd
p495
aVstep7_523.dcd
p496
aVstep7_524.dcd
p497
aVstep7_525.dcd
p498
aVstep7_526.dcd
p499
aVstep7_527.dcd
p500
aVstep7_528.dcd
p501
aVstep7_529.dcd
p502
aVstep7_530.dcd
p503
aVstep7_531.dcd
p504
aVstep7_532.dcd
p505
aVstep7_533.dcd
p506
aVstep7_534.dcd
p507
aVstep7_535.dcd
p508
aVstep7_536.dcd
p509
aVstep7_537.dcd
p510
aVstep7_538.dcd
p511
aVstep7_539.dcd
p512
aVstep7_540.dcd
p513
aVstep7_541.dcd
p514
aVstep7_542.dcd
p515
aVstep7_543.dcd
p516
aVstep7_544.dcd
p517
aVstep7_545.dcd
p518
aVstep7_546.dcd
p519
aVstep7_547.dcd
p520
aVstep7_548.dcd
p521
aVstep7_549.dcd
p522
aVstep7_550.dcd
p523
aVstep7_551.dcd
p524
aVstep7_552.dcd
p525
aVstep7_553.dcd
p526
aVstep7_554.dcd
p527
aVstep7_555.dcd
p528
aVstep7_556.dcd
p529
aVstep7_557.dcd
p530
aVstep7_558.dcd
p531
aVstep7_559.dcd
p532
aVstep7_560.dcd
p533
aVstep7_561.dcd
p534
aVstep7_562.dcd
p535
aVstep7_563.dcd
p536
aVstep7_564.dcd
p537
aVstep7_565.dcd
p538
aVstep7_566.dcd
p539
aVstep7_567.dcd
p540
aVstep7_568.dcd
p541
aVstep7_569.dcd
p542
aVstep7_570.dcd
p543
aVstep7_571.dcd
p544
aVstep7_572.dcd
p545
aVstep7_573.dcd
p546
aVstep7_574.dcd
p547
aVstep7_575.dcd
p548
aVstep7_576.dcd
p549
aVstep7_577.dcd
p550
aVstep7_578.dcd
p551
aVstep7_579.dcd
p552
aVstep7_580.dcd
p553
aVstep7_581.dcd
p554
aVstep7_582.dcd
p555
aVstep7_583.dcd
p556
aVstep7_584.dcd
p557
aVstep7_585.dcd
p558
aVstep7_586.dcd
p559
aVstep7_587.dcd
p560
aVstep7_588.dcd
p561
aVstep7_589.dcd
p562
aVstep7_590.dcd
p563
aVstep7_591.dcd
p564
aVstep7_592.dcd
p565
aVstep7_593.dcd
p566
aVstep7_594.dcd
p567
aVstep7_595.dcd
p568
aVstep7_596.dcd
p569
aVstep7_597.dcd
p570
aVstep7_598.dcd
p571
aVstep7_599.dcd
p572
aVstep7_600.dcd
p573
aVstep7_601.dcd
p574
aVstep7_602.dcd
p575
aVstep7_603.dcd
p576
aVstep7_604.dcd
p577
aVstep7_605.dcd
p578
aVstep7_606.dcd
p579
aVstep7_607.dcd
p580
aVstep7_608.dcd
p581
aVstep7_609.dcd
p582
aVstep7_610.dcd
p583
aVstep7_611.dcd
p584
aVstep7_612.dcd
p585
aVstep7_613.dcd
p586
aVstep7_614.dcd
p587
aVstep7_615.dcd
p588
aVstep7_616.dcd
p589
aVstep7_617.dcd
p590
aVstep7_618.dcd
p591
aVstep7_619.dcd
p592
aVstep7_620.dcd
p593
aVstep7_621.dcd
p594
aVstep7_622.dcd
p595
aVstep7_623.dcd
p596
aVstep7_624.dcd
p597
aVstep7_625.dcd
p598
aVstep7_626.dcd
p599
aVstep7_627.dcd
p600
aVstep7_628.dcd
p601
aVstep7_629.dcd
p602
aVstep7_630.dcd
p603
aVstep7_631.dcd
p604
aVstep7_632.dcd
p605
aVstep7_633.dcd
p606
aVstep7_634.dcd
p607
aVstep7_635.dcd
p608
aVstep7_636.dcd
p609
aVstep7_637.dcd
p610
aVstep7_638.dcd
p611
aVstep7_639.dcd
p612
aVstep7_640.dcd
p613
aVstep7_641.dcd
p614
aVstep7_642.dcd
p615
aVstep7_643.dcd
p616
aVstep7_644.dcd
p617
aVstep7_645.dcd
p618
aVstep7_646.dcd
p619
aVstep7_647.dcd
p620
aVstep7_648.dcd
p621
aVstep7_649.dcd
p622
aVstep7_650.dcd
p623
aVstep7_651.dcd
p624
aVstep7_652.dcd
p625
aVstep7_653.dcd
p626
aVstep7_654.dcd
p627
aVstep7_655.dcd
p628
aVstep7_656.dcd
p629
aVstep7_657.dcd
p630
aVstep7_658.dcd
p631
aVstep7_659.dcd
p632
aVstep7_660.dcd
p633
aVstep7_661.dcd
p634
aVstep7_662.dcd
p635
aVstep7_663.dcd
p636
aVstep7_664.dcd
p637
aVstep7_665.dcd
p638
aVstep7_666.dcd
p639
aVstep7_667.dcd
p640
aVstep7_668.dcd
p641
aVstep7_669.dcd
p642
aVstep7_670.dcd
p643
aVstep7_671.dcd
p644
aVstep7_672.dcd
p645
aVstep7_673.dcd
p646
aVstep7_674.dcd
p647
aVstep7_675.dcd
p648
aVstep7_676.dcd
p649
aVstep7_677.dcd
p650
aVstep7_678.dcd
p651
aVstep7_679.dcd
p652
aVstep7_680.dcd
p653
aVstep7_681.dcd
p654
aVstep7_682.dcd
p655
aVstep7_683.dcd
p656
aVstep7_684.dcd
p657
aVstep7_685.dcd
p658
aVstep7_686.dcd
p659
aVstep7_687.dcd
p660
aVstep7_688.dcd
p661
aVstep7_689.dcd
p662
aVstep7_690.dcd
p663
aVstep7_691.dcd
p664
aVstep7_692.dcd
p665
aVstep7_693.dcd
p666
aVstep7_694.dcd
p667
aVstep7_695.dcd
p668
aVstep7_696.dcd
p669
aVstep7_697.dcd
p670
aVstep7_698.dcd
p671
aVstep7_699.dcd
p672
aVstep7_700.dcd
p673
aVstep7_701.dcd
p674
aVstep7_702.dcd
p675
aVstep7_703.dcd
p676
aVstep7_704.dcd
p677
aVstep7_705.dcd
p678
aVstep7_706.dcd
p679
aVstep7_707.dcd
p680
aVstep7_708.dcd
p681
aVstep7_709.dcd
p682
aVstep7_710.dcd
p683
aVstep7_711.dcd
p684
aVstep7_712.dcd
p685
aVstep7_713.dcd
p686
aVstep7_714.dcd
p687
aVstep7_715.dcd
p688
aVstep7_716.dcd
p689
aVstep7_717.dcd
p690
aVstep7_718.dcd
p691
aVstep7_719.dcd
p692
aVstep7_720.dcd
p693
aVstep7_721.dcd
p694
aVstep7_722.dcd
p695
aVstep7_723.dcd
p696
aVstep7_724.dcd
p697
aVstep7_725.dcd
p698
aVstep7_726.dcd
p699
aVstep7_727.dcd
p700
aVstep7_728.dcd
p701
aVstep7_729.dcd
p702
aVstep7_730.dcd
p703
aVstep7_731.dcd
p704
aVstep7_732.dcd
p705
aVstep7_733.dcd
p706
aVstep7_734.dcd
p707
aVstep7_735.dcd
p708
aVstep7_736.dcd
p709
aVstep7_737.dcd
p710
aVstep7_738.dcd
p711
aVstep7_739.dcd
p712
aVstep7_740.dcd
p713
aVstep7_741.dcd
p714
aVstep7_742.dcd
p715
aVstep7_743.dcd
p716
aVstep7_744.dcd
p717
aVstep7_745.dcd
p718
aVstep7_746.dcd
p719
aVstep7_747.dcd
p720
aVstep7_748.dcd
p721
aVstep7_749.dcd
p722
aVstep7_750.dcd
p723
asS'paraInfo'
p724
(lp725
(lp726
VNumber of Parameters
p727
aVFrame interval
p728
aVOutput name
p729
aVAxis
p730
aVMinimum value in the given axis
p731
aVMaximum value in the given axis
p732
aVBin size
p733
aVQuery
p734
aVTotal number of atoms
p735
aa(lp736
VNumber of Parameters
p737
aVFrame interval
p738
aVOutput name
p739
aVAxis
p740
aVMinimum value in the given axis
p741
aVMaximum value in the given axis
p742
aVBin size
p743
aVQuery
p744
aVTotal number of atoms
p745
aa(lp746
VNumber of Parameters
p747
aVFrame interval
p748
aVOutput name
p749
aVAxis
p750
aVMinimum value in the given axis
p751
aVMaximum value in the given axis
p752
aVBin size
p753
aVQuery
p754
aVTotal number of atoms
p755
aa(lp756
VNumber of Parameters
p757
aVFrame interval
p758
aVOutput name
p759
aVAxis
p760
aVMinimum value in the given axis
p761
aVMaximum value in the given axis
p762
aVBin size
p763
aVQuery
p764
aVTotal number of atoms
p765
aa(lp766
VNumber of Parameters
p767
aVFrame interval
p768
aVOutput name
p769
aVAxis
p770
aVMinimum value in the given axis
p771
aVMaximum value in the given axis
p772
aVBin size
p773
aVQuery
p774
aVTotal number of atoms
p775
aa(lp776
VNumber of Parameters
p777
aVFrame interval
p778
aVOutput name
p779
aVAxis
p780
aVMinimum value in the given axis
p781
aVMaximum value in the given axis
p782
aVBin size
p783
aVQuery
p784
aVTotal number of atoms
p785
aasS'job_pkey'
p786
(I380
tp787
sS'path_output'
p788
S'/home2/jcjeong/project/stanalyzer0/stanalyzer/media/jcjeong/'
p789
sS'path_python'
p790
Vpython
p791
sS'job_title'
p792
Vanalyzing trajectory
p793
sS'pkey'
p794
V1
p795
sS'num_ps'
p796
V5.0
p797
sS'pdb_file'
p798
V#hist_1.plo#
p799
sS'pbs_home'
p800
S'/home2/jcjeong/project/stanalyzer0/stanalyzer/media/jcjeong/201305311107599858926FUCm1/pbs'
p801
sS'base_path'
p802
S'/home2/jcjeong/project/charmm/dol_dopc_1/'
p803
sS'date'
p804
S'20130531110759985892'
p805
sS'pbs'
p806
V#!/bin/bash\u000a#PBS -l nodes=1:ppn=1\u000a#PBS -l mem=500mb\u000a#PBS -l walltime=72:00:00\u000a#PBS -l cput=72:00:00\u000a#PBS -q charmm_nmr\u000a
p807
sS'analyzer_home'
p808
S'/home2/jcjeong/project/stanalyzer0/stanalyzer/static/analyzers'
p809
sS'num_files'
p810
V601
p811
sS'ptitle'
p812
Vcalculating helix
p813
sS'structure_file'
p814
V#hist_1.plo#
p815
sS'dbName'
p816
S'/home2/jcjeong/project/stanalyzer0/stanalyzer/stanalyzer.db'
p817
s.