(dp0
S'output_home'
p1
S'/home2/jcjeong/project/stanalyzer0/stanalyzer/media/jcjeong/20130718112322262977x6CYK8/'
p2
sS'num_atoms'
p3
V18019
p4
sS'media_home'
p5
S'/home2/jcjeong/project/stanalyzer0/stanalyzer/media'
p6
sS'funcName'
p7
(lp8
Vsterol_tilt_ring
p9
asS'Paras'
p10
(lp11
(lp12
(lp13
I5
aa(lp14
V1
p15
aa(lp16
Vsterol_ring_tilt.dat
p17
aa(lp18
VMEMB
p19
aa(lp20
VCHL1
p21
aa(lp22
Vname C3 or name C17
p23
aaasS'para_pkeys'
p24
(lp25
(lp26
I1824
aI1825
aI1826
aI1827
aI1828
aI1829
aasS'session_home'
p27
S'/home2/jcjeong/project/stanalyzer0/stanalyzer/media/jcjeong/20130718112322262977x6CYK8'
p28
sS'num_frame'
p29
V40
p30
sS'trajectory'
p31
(lp32
Vstep7_350.dcd
p33
asS'paraInfo'
p34
(lp35
(lp36
VNumber of Parameters
p37
aVFrame interval
p38
aVOutput name
p39
aVSegment ID
p40
aVResidue Name
p41
aVQuery
p42
aasS'job_pkey'
p43
(I207
tp44
sS'path_output'
p45
S'/home2/jcjeong/project/stanalyzer0/stanalyzer/media/jcjeong/'
p46
sS'path_python'
p47
V/export/apps/bin/python2.7
p48
sS'job_title'
p49
Vanalyzing trajectory
p50
sS'pkey'
p51
V1
p52
sS'num_ps'
p53
V5.0
p54
sS'pdb_file'
p55
Vstep5_assembly.pdb
p56
sS'pbs_home'
p57
S'/home2/jcjeong/project/stanalyzer0/stanalyzer/media/jcjeong/20130718112322262977x6CYK8/pbs'
p58
sS'base_path'
p59
S'/imscratch/emiliawu/yeast_ecoli/yeast_pc_popi13_1/'
p60
sS'date'
p61
S'20130718112322262977'
p62
sS'pbs'
p63
V#!/bin/bash\u000a#PBS -l nodes=1:ppn=1\u000a#PBS -l mem=500mb\u000a#PBS -l walltime=72:00:00\u000a#PBS -l cput=72:00:00\u000a#PBS -q default\u000a\u000aexport LD_LIBRARY_PATH=/export/apps/compilers/gcc48/lib64\u000a\u000a
p64
sS'analyzer_home'
p65
S'/home2/jcjeong/project/stanalyzer0/stanalyzer/static/analyzers'
p66
sS'num_files'
p67
V1
p68
sS'ptitle'
p69
VST-analyzer test1
p70
sS'structure_file'
p71
Vstep5_assembly.xplor_ext.psf
p72
sS'dbName'
p73
S'/home2/jcjeong/project/stanalyzer0/stanalyzer/stanalyzer.db'
p74
s.