(dp0
S'output_home'
p1
S'/home2/jcjeong/project/stanalyzer0/stanalyzer/media/jcjeong/20130716163729223611OAwPlf/'
p2
sS'num_atoms'
p3
V18019
p4
sS'media_home'
p5
S'/home2/jcjeong/project/stanalyzer0/stanalyzer/media'
p6
sS'funcName'
p7
(lp8
Vhelix_tilt
p9
asS'Paras'
p10
(lp11
(lp12
(lp13
I6
aa(lp14
V1
p15
aa(lp16
Voutput.dat
p17
aa(lp18
V0
p19
aa(lp20
VMEMB
p21
aa(lp22
g15
aa(lp23
V70
p24
aaasS'para_pkeys'
p25
(lp26
(lp27
I1665
aI1666
aI1667
aI1668
aI1669
aI1670
aI1671
aasS'session_home'
p28
S'/home2/jcjeong/project/stanalyzer0/stanalyzer/media/jcjeong/20130716163729223611OAwPlf'
p29
sS'num_frame'
p30
V40
p31
sS'trajectory'
p32
(lp33
Vstep7_0.dcd
p34
asS'paraInfo'
p35
(lp36
(lp37
VNumber of Parameters
p38
aVFrame interval
p39
aVOutput name
p40
aVSegment ID
p41
aVSegment Name
p42
aVStart Residue
p43
aVTerminal Residue
p44
aasS'job_pkey'
p45
(I192
tp46
sS'path_output'
p47
S'/home2/jcjeong/project/stanalyzer0/stanalyzer/media/jcjeong/'
p48
sS'path_python'
p49
V/export/apps/bin/python2.7
p50
sS'job_title'
p51
Vanalyzing trajectory
p52
sS'pkey'
p53
V1
p54
sS'num_ps'
p55
V5.0
p56
sS'pdb_file'
p57
Vstep5_assembly.pdb
p58
sS'pbs_home'
p59
S'/home2/jcjeong/project/stanalyzer0/stanalyzer/media/jcjeong/20130716163729223611OAwPlf/pbs'
p60
sS'base_path'
p61
S'/imscratch/emiliawu/yeast_ecoli/yeast_pc_popi13_1/'
p62
sS'date'
p63
S'20130716163729223611'
p64
sS'pbs'
p65
V#!/bin/bash\u000a#PBS -l nodes=1:ppn=1\u000a#PBS -l mem=500mb\u000a#PBS -l walltime=72:00:00\u000a#PBS -l cput=72:00:00\u000a#PBS -q default\u000a\u000aexport LD_LIBRARY_PATH=/export/apps/compilers/gcc48/lib64\u000a\u000a
p66
sS'analyzer_home'
p67
S'/home2/jcjeong/project/stanalyzer0/stanalyzer/static/analyzers'
p68
sS'num_files'
p69
V1
p70
sS'ptitle'
p71
VST-analyzer test1
p72
sS'structure_file'
p73
Vstep5_assembly.xplor_ext.psf
p74
sS'dbName'
p75
S'/home2/jcjeong/project/stanalyzer0/stanalyzer/stanalyzer.db'
p76
s.