(dp0
S'output_home'
p1
S'/home2/jcjeong/project/stanalyzer0/stanalyzer/media/jcjeong/20130213095558032362LdSRRb/'
p2
sS'num_atoms'
p3
V36855
p4
sS'media_home'
p5
S'/home2/jcjeong/project/stanalyzer0/stanalyzer/media'
p6
sS'funcName'
p7
(lp8
Vbox
p9
asS'Paras'
p10
(lp11
(lp12
(lp13
I2
aa(lp14
V1
p15
aa(lp16
Voutput.dat
p17
aaasS'para_pkeys'
p18
(lp19
(lp20
I2511
aI2512
aI2513
aasS'session_home'
p21
S'/home2/jcjeong/project/stanalyzer0/stanalyzer/media/jcjeong/20130213095558032362LdSRRb'
p22
sS'num_frame'
p23
V20
p24
sS'trajectory'
p25
(lp26
Vstep6_1.dcd
p27
aVstep6_2.dcd
p28
aVstep6_3.dcd
p29
aVstep6_10.dcd
p30
aVstep6_11.dcd
p31
aVstep6_100.dcd
p32
asS'paraInfo'
p33
(lp34
(lp35
VNumber of Parameters
p36
aVFrame interval
p37
aVOutput name
p38
aasS'job_pkey'
p39
(I18
tp40
sS'path_output'
p41
S'/home2/jcjeong/project/stanalyzer0/stanalyzer/media/jcjeong/'
p42
sS'path_python'
p43
V/home/sunhwan/local/python/bin/python
p44
sS'job_title'
p45
Vanalyzing trajectory
p46
sS'pkey'
p47
V1
p48
sS'num_ps'
p49
V2.0
p50
sS'pbs_home'
p51
S'/home2/jcjeong/project/stanalyzer0/stanalyzer/media/jcjeong/20130213095558032362LdSRRb/pbs'
p52
sS'base_path'
p53
S'/home2/jcjeong/project/stanalyzer1/stanalyzer/trajectory/'
p54
sS'date'
p55
S'20130213095558032362'
p56
sS'pbs'
p57
V#!/bin/bash\u000a#PBS -l nodes=1:ppn=1\u000a#PBS -l mem=500mb\u000a#PBS -l walltime=72:00:00\u000a#PBS -l cput=72:00:00\u000a#PBS -q default\u000a
p58
sS'analyzer_home'
p59
S'/home2/jcjeong/project/stanalyzer0/stanalyzer/static/analyzers'
p60
sS'num_files'
p61
V6
p62
sS'ptitle'
p63
Vcalculating helix
p64
sS'structure_file'
p65
Vstep5_assembly.psf
p66
sS'dbName'
p67
S'/home2/jcjeong/project/stanalyzer0/stanalyzer/stanalyzer.db'
p68
s.