(dp0
S'output_home'
p1
S'/home2/jcjeong/project/stanalyzer0/stanalyzer/media/jcjeong/20130501153546240650fzVTSH/'
p2
sS'num_atoms'
p3
V32727
p4
sS'media_home'
p5
S'/home2/jcjeong/project/stanalyzer0/stanalyzer/media'
p6
sS'funcName'
p7
(lp8
Vordpara_dopc
p9
asS'Paras'
p10
(lp11
(lp12
(lp13
I4
aa(lp14
V1
p15
aa(lp16
Vordpara_dopc.dat
p17
aa(lp18
VZ
p19
aa(lp20
V32727
p21
aaasS'para_pkeys'
p22
(lp23
(lp24
I5234
aI5235
aI5236
aI5237
aI5238
aasS'session_home'
p25
S'/home2/jcjeong/project/stanalyzer0/stanalyzer/media/jcjeong/20130501153546240650fzVTSH'
p26
sS'num_frame'
p27
V50
p28
sS'trajectory'
p29
(lp30
Vstep7_0.dcd
p31
aVstep7_1.dcd
p32
asS'paraInfo'
p33
(lp34
(lp35
VNumber of Parameters
p36
aVFrame interval
p37
aVOutput name
p38
aVAxis
p39
aVTotal number of atoms
p40
aasS'job_pkey'
p41
(I228
tp42
sS'path_output'
p43
S'/home2/jcjeong/project/stanalyzer0/stanalyzer/media/jcjeong/'
p44
sS'path_python'
p45
Vpython
p46
sS'job_title'
p47
Vanalyzing trajectory
p48
sS'pkey'
p49
V1
p50
sS'num_ps'
p51
V5.0
p52
sS'pdb_file'
p53
V#hist_1.plo#
p54
sS'pbs_home'
p55
S'/home2/jcjeong/project/stanalyzer0/stanalyzer/media/jcjeong/20130501153546240650fzVTSH/pbs'
p56
sS'base_path'
p57
S'/home2/jcjeong/project/charmm/dol_dopc_1/'
p58
sS'date'
p59
S'20130501153546240650'
p60
sS'pbs'
p61
V#!/bin/bash\u000a#PBS -l nodes=1:ppn=1\u000a#PBS -l mem=500mb\u000a#PBS -l walltime=72:00:00\u000a#PBS -l cput=72:00:00\u000a#PBS -q charmm_nmr\u000a
p62
sS'analyzer_home'
p63
S'/home2/jcjeong/project/stanalyzer0/stanalyzer/static/analyzers'
p64
sS'num_files'
p65
V200
p66
sS'ptitle'
p67
Vcalculating helix
p68
sS'structure_file'
p69
V#hist_1.plo#
p70
sS'dbName'
p71
S'/home2/jcjeong/project/stanalyzer0/stanalyzer/stanalyzer.db'
p72
s.