(dp0
S'output_home'
p1
S'/home2/jcjeong/project/stanalyzer0/stanalyzer/media/jcjeong/20130213102622488427zti5Hv/'
p2
sS'num_atoms'
p3
V36855
p4
sS'media_home'
p5
S'/home2/jcjeong/project/stanalyzer0/stanalyzer/media'
p6
sS'funcName'
p7
(lp8
Vbox
p9
asS'Paras'
p10
(lp11
(lp12
(lp13
I2
aa(lp14
V1
p15
aa(lp16
Voutput.dat
p17
aaasS'para_pkeys'
p18
(lp19
(lp20
I2574
aI2575
aI2576
aasS'session_home'
p21
S'/home2/jcjeong/project/stanalyzer0/stanalyzer/media/jcjeong/20130213102622488427zti5Hv'
p22
sS'num_frame'
p23
V20
p24
sS'trajectory'
p25
(lp26
Vstep6_1.dcd
p27
aVstep6_2.dcd
p28
aVstep6_3.dcd
p29
aVstep6_10.dcd
p30
aVstep6_11.dcd
p31
aVstep6_100.dcd
p32
aVstep6_101.dcd
p33
aVstep6_200.dcd
p34
asS'paraInfo'
p35
(lp36
(lp37
VNumber of Parameters
p38
aVFrame interval
p39
aVOutput name
p40
aasS'job_pkey'
p41
(I39
tp42
sS'path_output'
p43
S'/home2/jcjeong/project/stanalyzer0/stanalyzer/media/jcjeong/'
p44
sS'path_python'
p45
V/home/sunhwan/local/python/bin/python
p46
sS'job_title'
p47
Vanalyzing trajectory
p48
sS'pkey'
p49
V1
p50
sS'num_ps'
p51
V2.0
p52
sS'pbs_home'
p53
S'/home2/jcjeong/project/stanalyzer0/stanalyzer/media/jcjeong/20130213102622488427zti5Hv/pbs'
p54
sS'base_path'
p55
S'/home2/jcjeong/project/stanalyzer1/stanalyzer/trajectory/'
p56
sS'date'
p57
S'20130213102622488427'
p58
sS'pbs'
p59
V#!/bin/bash\u000a#PBS -l nodes=1:ppn=1\u000a#PBS -l mem=500mb\u000a#PBS -l walltime=72:00:00\u000a#PBS -l cput=72:00:00\u000a#PBS -q default\u000a
p60
sS'analyzer_home'
p61
S'/home2/jcjeong/project/stanalyzer0/stanalyzer/static/analyzers'
p62
sS'num_files'
p63
V8
p64
sS'ptitle'
p65
Vcalculating helix
p66
sS'structure_file'
p67
Vstep5_assembly.psf
p68
sS'dbName'
p69
S'/home2/jcjeong/project/stanalyzer0/stanalyzer/stanalyzer.db'
p70
s.