(dp0
S'output_home'
p1
S'/home2/jcjeong/project/stanalyzer0/stanalyzer/media/jcjeong/20131016155203522768UcixHi/'
p2
sS'num_atoms'
p3
V32205
p4
sS'media_home'
p5
S'/home2/jcjeong/project/stanalyzer0/stanalyzer/media'
p6
sS'funcName'
p7
(lp8
Varea_per_lipid
p9
aVdensity_all
p10
aVdensity_lpH
p11
aVdensity_lpT
p12
aVdensity_water
p13
aVdensity_waterdp
p14
aVordpara_charmm
p15
aVthickness_phosphate
p16
aVthickness_carbon
p17
asS'Paras'
p18
(lp19
(lp20
(lp21
I7
aa(lp22
V1
p23
aa(lp24
VEcoli_pe27_1_voronoi_lipid_per_area.dat
p25
aa(lp26
V32205
p27
aa(lp28
Vsegid MEMB and ( (resname DXPE and (name C2 or name C21 or name C31)) or (resname PMCL2 and (name C2 or name C21 or name C31)) or (resname DPPE and (name C2 or name C21 or name C31)) or (resname TXCL2 and (name C2 or name C21 or name C31)) or (resname PMPE and (name C2 or name C21 or name C31)))
p29
aa(lp30
V68.8479766846
p31
aa(lp32
V68.8479766846
p33
aa(lp34
V
p35
aaa(lp36
(lp37
I8
aa(lp38
g23
aa(lp39
VEcoli_pe27_1_density_all.dat
p40
aa(lp41
VZ
p42
aa(lp43
V-50
p44
aa(lp45
V50
p46
aa(lp47
g23
aa(lp48
Vall
p49
aa(lp50
V32205
p51
aaa(lp52
(lp53
I8
aa(lp54
g23
aa(lp55
VEcoli_pe27_1_density_lipid_head.dat
p56
aa(lp57
g42
aa(lp58
V-50
p59
aa(lp60
V50
p61
aa(lp62
g23
aa(lp63
Vsegid MEMB and ( name P or name N or (name C1* and not name C1) or name O1* )
p64
aa(lp65
V32205
p66
aaa(lp67
(lp68
I8
aa(lp69
g23
aa(lp70
VEcoli_pe27_1_density_lipid_tail.dat
p71
aa(lp72
g42
aa(lp73
V-50
p74
aa(lp75
V50
p76
aa(lp77
g23
aa(lp78
Vsegid MEMB and ( name C2* or name C3* ) and not ( name C21 or  name C31 )
p79
aa(lp80
V32205
p81
aaa(lp82
(lp83
I8
aa(lp84
g23
aa(lp85
VEcoli_pe27_1_density_water.dat
p86
aa(lp87
g42
aa(lp88
V-50
p89
aa(lp90
V50
p91
aa(lp92
g23
aa(lp93
Vsegid TIP3 and name OH2
p94
aa(lp95
V32205
p96
aaa(lp97
(lp98
I8
aa(lp99
g23
aa(lp100
VEcoli_pe27_1_density_water_dipole.dat
p101
aa(lp102
g42
aa(lp103
V-50
p104
aa(lp105
V50
p106
aa(lp107
g23
aa(lp108
Vsegid TIP3
p109
aa(lp110
V32205
p111
aaa(lp112
(lp113
I7
aa(lp114
g23
ag23
ag23
ag23
ag23
ag23
ag23
ag23
ag23
ag23
ag23
ag23
ag23
ag23
aa(lp115
VEcoli_pe27_1_ordpara_charmm_DXPE_C2.dat
p116
aVordpara_charmm_DXPE_C3.dat
p117
aVordpara_PMPE_C2.dat
p118
aVordpara_PMPE_C3.dat
p119
aVordpara_PMCL2_CA.dat
p120
aVordpara_PMCL2_CB.dat
p121
aVordpara_PMCL2_CC.dat
p122
aVordpara_PMCL2_CD.dat
p123
aVordpara_DPPE_C2.dat
p124
aVordpara_DPPE_C3.dat
p125
aVordpara_TXCL2_CA.dat
p126
aVordpara_TXCL2_CB.dat
p127
aVordpara_TXCL2_CC.dat
p128
aVordpara_TXCL2_CD.dat
p129
aa(lp130
g42
ag42
ag42
ag42
ag42
ag42
ag42
ag42
ag42
ag42
ag42
ag42
ag42
ag42
aa(lp131
V18078
p132
aV18078
p133
aV18078
p134
aV18078
p135
aV18078
p136
aV18078
p137
aV18078
p138
aV18078
p139
aV18078
p140
aV18078
p141
aV18078
p142
aV18078
p143
aV18078
p144
aV18078
p145
aa(lp146
VMEMB
p147
aVMEMB
p148
aVMEMB
p149
aVMEMB
p150
aVMEMB
p151
aVMEMB
p152
aVMEMB
p153
aVMEMB
p154
aVMEMB
p155
aVMEMB
p156
aVMEMB
p157
aVMEMB
p158
aVMEMB
p159
aVMEMB
p160
aa(lp161
VDXPE
p162
aVDXPE
p163
aVPMPE
p164
aVPMPE
p165
aVPMCL2
p166
aVPMCL2
p167
aVPMCL2
p168
aVPMCL2
p169
aVDPPE
p170
aVDPPE
p171
aVTXCL2
p172
aVTXCL2
p173
aVTXCL2
p174
aVTXCL2
p175
aa(lp176
Vname C2* and not (name C2 or name C21)
p177
aVname C3* and not (name C3 or name C31)
p178
aVname C2* and not (name C2 or name C21)
p179
aVname C3* and not (name C3 or name C31)
p180
aVname CA* and not (name CA1)
p181
aVname CB* and not (name CB1)
p182
aVname CC* and not (name CC1)
p183
aVname CD* and not (name CD1)
p184
aVname C2* and not (name C2 or name C21)
p185
aVname C3* and not (name C3 or name C31)
p186
aVname CA* and not (name CA1)
p187
aVname CB* and not (name CB1)
p188
aVname CC* and not (name CC1)
p189
aVname CD* and not (name CD1)
p190
aaa(lp191
(lp192
I4
aa(lp193
g23
aa(lp194
Vthickness_phosphate.dat
p195
aa(lp196
g35
aa(lp197
Vname P
p198
aaa(lp199
(lp200
I4
aa(lp201
g23
aa(lp202
Vthickness_carbon.dat
p203
aa(lp204
g35
aa(lp205
Vname C22 or name C32 or name CA2 or name CB2 or name CC2 or name CD2
p206
aaasS'para_pkeys'
p207
(lp208
(lp209
I2895
aI2896
aI2897
aI2898
aI2899
aI2900
aI2901
aI2902
aa(lp210
I2903
aI2904
aI2905
aI2906
aI2907
aI2908
aI2909
aI2910
aI2911
aa(lp211
I2912
aI2913
aI2914
aI2915
aI2916
aI2917
aI2918
aI2919
aI2920
aa(lp212
I2921
aI2922
aI2923
aI2924
aI2925
aI2926
aI2927
aI2928
aI2929
aa(lp213
I2930
aI2931
aI2932
aI2933
aI2934
aI2935
aI2936
aI2937
aI2938
aa(lp214
I2939
aI2940
aI2941
aI2942
aI2943
aI2944
aI2945
aI2946
aI2947
aa(lp215
I2948
aI2949
aI2950
aI2951
aI2952
aI2953
aI2954
aI2955
aI2956
aI2957
aI2958
aI2959
aI2960
aI2961
aI2962
aI2963
aI2964
aI2965
aI2966
aI2967
aI2968
aI2969
aI2970
aI2971
aI2972
aI2973
aI2974
aI2975
aI2976
aI2977
aI2978
aI2979
aI2980
aI2981
aI2982
aI2983
aI2984
aI2985
aI2986
aI2987
aI2988
aI2989
aI2990
aI2991
aI2992
aI2993
aI2994
aI2995
aI2996
aI2997
aI2998
aI2999
aI3000
aI3001
aI3002
aI3003
aI3004
aI3005
aI3006
aI3007
aI3008
aI3009
aI3010
aI3011
aI3012
aI3013
aI3014
aI3015
aI3016
aI3017
aI3018
aI3019
aI3020
aI3021
aI3022
aI3023
aI3024
aI3025
aI3026
aI3027
aI3028
aI3029
aI3030
aI3031
aI3032
aI3033
aI3034
aI3035
aI3036
aI3037
aI3038
aI3039
aI3040
aI3041
aI3042
aI3043
aI3044
aI3045
aI3046
aa(lp216
I3047
aI3048
aI3049
aI3050
aI3051
aa(lp217
I3052
aI3053
aI3054
aI3055
aI3056
aasS'session_home'
p218
S'/home2/jcjeong/project/stanalyzer0/stanalyzer/media/jcjeong/20131016155203522768UcixHi'
p219
sS'num_frame'
p220
V40
p221
sS'trajectory'
p222
(lp223
Vstep7_0.dcd
p224
aVstep7_1.dcd
p225
aVstep7_2.dcd
p226
aVstep7_3.dcd
p227
aVstep7_4.dcd
p228
aVstep7_5.dcd
p229
aVstep7_6.dcd
p230
aVstep7_7.dcd
p231
aVstep7_8.dcd
p232
aVstep7_9.dcd
p233
aVstep7_10.dcd
p234
aVstep7_11.dcd
p235
aVstep7_12.dcd
p236
aVstep7_13.dcd
p237
aVstep7_14.dcd
p238
aVstep7_15.dcd
p239
aVstep7_16.dcd
p240
aVstep7_17.dcd
p241
aVstep7_18.dcd
p242
aVstep7_19.dcd
p243
aVstep7_20.dcd
p244
aVstep7_21.dcd
p245
aVstep7_22.dcd
p246
aVstep7_23.dcd
p247
aVstep7_24.dcd
p248
aVstep7_25.dcd
p249
aVstep7_26.dcd
p250
aVstep7_27.dcd
p251
aVstep7_28.dcd
p252
aVstep7_29.dcd
p253
aVstep7_30.dcd
p254
aVstep7_31.dcd
p255
aVstep7_32.dcd
p256
aVstep7_33.dcd
p257
aVstep7_34.dcd
p258
aVstep7_35.dcd
p259
aVstep7_36.dcd
p260
aVstep7_37.dcd
p261
aVstep7_38.dcd
p262
aVstep7_39.dcd
p263
aVstep7_40.dcd
p264
aVstep7_41.dcd
p265
aVstep7_42.dcd
p266
aVstep7_43.dcd
p267
aVstep7_44.dcd
p268
aVstep7_45.dcd
p269
aVstep7_46.dcd
p270
aVstep7_47.dcd
p271
aVstep7_48.dcd
p272
aVstep7_49.dcd
p273
aVstep7_50.dcd
p274
aVstep7_51.dcd
p275
aVstep7_52.dcd
p276
aVstep7_53.dcd
p277
aVstep7_54.dcd
p278
aVstep7_55.dcd
p279
aVstep7_56.dcd
p280
aVstep7_57.dcd
p281
aVstep7_58.dcd
p282
aVstep7_59.dcd
p283
aVstep7_60.dcd
p284
aVstep7_61.dcd
p285
aVstep7_62.dcd
p286
aVstep7_63.dcd
p287
aVstep7_64.dcd
p288
aVstep7_65.dcd
p289
aVstep7_66.dcd
p290
aVstep7_67.dcd
p291
aVstep7_68.dcd
p292
aVstep7_69.dcd
p293
aVstep7_70.dcd
p294
aVstep7_71.dcd
p295
aVstep7_72.dcd
p296
aVstep7_73.dcd
p297
aVstep7_74.dcd
p298
aVstep7_75.dcd
p299
aVstep7_76.dcd
p300
aVstep7_77.dcd
p301
aVstep7_78.dcd
p302
aVstep7_79.dcd
p303
aVstep7_80.dcd
p304
aVstep7_81.dcd
p305
aVstep7_82.dcd
p306
aVstep7_83.dcd
p307
aVstep7_84.dcd
p308
aVstep7_85.dcd
p309
aVstep7_86.dcd
p310
aVstep7_87.dcd
p311
aVstep7_88.dcd
p312
aVstep7_89.dcd
p313
aVstep7_90.dcd
p314
aVstep7_91.dcd
p315
aVstep7_92.dcd
p316
aVstep7_93.dcd
p317
aVstep7_94.dcd
p318
aVstep7_95.dcd
p319
aVstep7_96.dcd
p320
aVstep7_97.dcd
p321
aVstep7_98.dcd
p322
aVstep7_99.dcd
p323
aVstep7_100.dcd
p324
aVstep7_101.dcd
p325
aVstep7_102.dcd
p326
aVstep7_103.dcd
p327
aVstep7_104.dcd
p328
aVstep7_105.dcd
p329
aVstep7_106.dcd
p330
aVstep7_107.dcd
p331
aVstep7_108.dcd
p332
aVstep7_109.dcd
p333
aVstep7_110.dcd
p334
aVstep7_111.dcd
p335
aVstep7_112.dcd
p336
aVstep7_113.dcd
p337
aVstep7_114.dcd
p338
aVstep7_115.dcd
p339
aVstep7_116.dcd
p340
aVstep7_117.dcd
p341
aVstep7_118.dcd
p342
aVstep7_119.dcd
p343
aVstep7_120.dcd
p344
aVstep7_121.dcd
p345
aVstep7_122.dcd
p346
aVstep7_123.dcd
p347
aVstep7_124.dcd
p348
aVstep7_125.dcd
p349
aVstep7_126.dcd
p350
aVstep7_127.dcd
p351
aVstep7_128.dcd
p352
aVstep7_129.dcd
p353
aVstep7_130.dcd
p354
aVstep7_131.dcd
p355
aVstep7_132.dcd
p356
aVstep7_133.dcd
p357
aVstep7_134.dcd
p358
aVstep7_135.dcd
p359
aVstep7_136.dcd
p360
aVstep7_137.dcd
p361
aVstep7_138.dcd
p362
aVstep7_139.dcd
p363
aVstep7_140.dcd
p364
aVstep7_141.dcd
p365
aVstep7_142.dcd
p366
aVstep7_143.dcd
p367
aVstep7_144.dcd
p368
aVstep7_145.dcd
p369
aVstep7_146.dcd
p370
aVstep7_147.dcd
p371
aVstep7_148.dcd
p372
aVstep7_149.dcd
p373
aVstep7_150.dcd
p374
aVstep7_151.dcd
p375
aVstep7_152.dcd
p376
aVstep7_153.dcd
p377
aVstep7_154.dcd
p378
aVstep7_155.dcd
p379
aVstep7_156.dcd
p380
aVstep7_157.dcd
p381
aVstep7_158.dcd
p382
aVstep7_159.dcd
p383
aVstep7_160.dcd
p384
aVstep7_161.dcd
p385
aVstep7_162.dcd
p386
aVstep7_163.dcd
p387
aVstep7_164.dcd
p388
aVstep7_165.dcd
p389
aVstep7_166.dcd
p390
aVstep7_167.dcd
p391
aVstep7_168.dcd
p392
aVstep7_169.dcd
p393
aVstep7_170.dcd
p394
aVstep7_171.dcd
p395
aVstep7_172.dcd
p396
aVstep7_173.dcd
p397
aVstep7_174.dcd
p398
aVstep7_175.dcd
p399
aVstep7_176.dcd
p400
aVstep7_177.dcd
p401
aVstep7_178.dcd
p402
aVstep7_179.dcd
p403
aVstep7_180.dcd
p404
aVstep7_181.dcd
p405
aVstep7_182.dcd
p406
aVstep7_183.dcd
p407
aVstep7_184.dcd
p408
aVstep7_185.dcd
p409
aVstep7_186.dcd
p410
aVstep7_187.dcd
p411
aVstep7_188.dcd
p412
aVstep7_189.dcd
p413
aVstep7_190.dcd
p414
aVstep7_191.dcd
p415
aVstep7_192.dcd
p416
aVstep7_193.dcd
p417
aVstep7_194.dcd
p418
aVstep7_195.dcd
p419
aVstep7_196.dcd
p420
aVstep7_197.dcd
p421
aVstep7_198.dcd
p422
aVstep7_199.dcd
p423
aVstep7_200.dcd
p424
aVstep7_201.dcd
p425
aVstep7_202.dcd
p426
aVstep7_203.dcd
p427
aVstep7_204.dcd
p428
aVstep7_205.dcd
p429
aVstep7_206.dcd
p430
aVstep7_207.dcd
p431
aVstep7_208.dcd
p432
aVstep7_209.dcd
p433
aVstep7_210.dcd
p434
aVstep7_211.dcd
p435
aVstep7_212.dcd
p436
aVstep7_213.dcd
p437
aVstep7_214.dcd
p438
aVstep7_215.dcd
p439
aVstep7_216.dcd
p440
aVstep7_217.dcd
p441
aVstep7_218.dcd
p442
aVstep7_219.dcd
p443
aVstep7_220.dcd
p444
aVstep7_221.dcd
p445
aVstep7_222.dcd
p446
aVstep7_223.dcd
p447
aVstep7_224.dcd
p448
aVstep7_225.dcd
p449
aVstep7_226.dcd
p450
aVstep7_227.dcd
p451
aVstep7_228.dcd
p452
aVstep7_229.dcd
p453
aVstep7_230.dcd
p454
aVstep7_231.dcd
p455
aVstep7_232.dcd
p456
aVstep7_233.dcd
p457
aVstep7_234.dcd
p458
aVstep7_235.dcd
p459
aVstep7_236.dcd
p460
aVstep7_237.dcd
p461
aVstep7_238.dcd
p462
aVstep7_239.dcd
p463
aVstep7_240.dcd
p464
aVstep7_241.dcd
p465
aVstep7_242.dcd
p466
aVstep7_243.dcd
p467
aVstep7_244.dcd
p468
aVstep7_245.dcd
p469
aVstep7_246.dcd
p470
aVstep7_247.dcd
p471
aVstep7_248.dcd
p472
aVstep7_249.dcd
p473
aVstep7_250.dcd
p474
aVstep7_251.dcd
p475
aVstep7_252.dcd
p476
aVstep7_253.dcd
p477
aVstep7_254.dcd
p478
aVstep7_255.dcd
p479
aVstep7_256.dcd
p480
aVstep7_257.dcd
p481
aVstep7_258.dcd
p482
aVstep7_259.dcd
p483
aVstep7_260.dcd
p484
aVstep7_261.dcd
p485
aVstep7_262.dcd
p486
aVstep7_263.dcd
p487
aVstep7_264.dcd
p488
aVstep7_265.dcd
p489
aVstep7_266.dcd
p490
aVstep7_267.dcd
p491
aVstep7_268.dcd
p492
aVstep7_269.dcd
p493
aVstep7_270.dcd
p494
aVstep7_271.dcd
p495
aVstep7_272.dcd
p496
aVstep7_273.dcd
p497
aVstep7_274.dcd
p498
aVstep7_275.dcd
p499
aVstep7_276.dcd
p500
aVstep7_277.dcd
p501
aVstep7_278.dcd
p502
aVstep7_279.dcd
p503
aVstep7_280.dcd
p504
aVstep7_281.dcd
p505
aVstep7_282.dcd
p506
aVstep7_283.dcd
p507
aVstep7_284.dcd
p508
aVstep7_285.dcd
p509
aVstep7_286.dcd
p510
aVstep7_287.dcd
p511
aVstep7_288.dcd
p512
aVstep7_289.dcd
p513
aVstep7_290.dcd
p514
aVstep7_291.dcd
p515
aVstep7_292.dcd
p516
aVstep7_293.dcd
p517
aVstep7_294.dcd
p518
aVstep7_295.dcd
p519
aVstep7_296.dcd
p520
aVstep7_297.dcd
p521
aVstep7_298.dcd
p522
aVstep7_299.dcd
p523
aVstep7_300.dcd
p524
aVstep7_301.dcd
p525
aVstep7_302.dcd
p526
aVstep7_303.dcd
p527
aVstep7_304.dcd
p528
aVstep7_305.dcd
p529
aVstep7_306.dcd
p530
aVstep7_307.dcd
p531
aVstep7_308.dcd
p532
aVstep7_309.dcd
p533
aVstep7_310.dcd
p534
aVstep7_311.dcd
p535
aVstep7_312.dcd
p536
aVstep7_313.dcd
p537
aVstep7_314.dcd
p538
aVstep7_315.dcd
p539
aVstep7_316.dcd
p540
aVstep7_317.dcd
p541
aVstep7_318.dcd
p542
aVstep7_319.dcd
p543
aVstep7_320.dcd
p544
aVstep7_321.dcd
p545
aVstep7_322.dcd
p546
aVstep7_323.dcd
p547
aVstep7_324.dcd
p548
aVstep7_325.dcd
p549
aVstep7_326.dcd
p550
aVstep7_327.dcd
p551
aVstep7_328.dcd
p552
aVstep7_329.dcd
p553
aVstep7_330.dcd
p554
aVstep7_331.dcd
p555
aVstep7_332.dcd
p556
aVstep7_333.dcd
p557
aVstep7_334.dcd
p558
aVstep7_335.dcd
p559
aVstep7_336.dcd
p560
aVstep7_337.dcd
p561
aVstep7_338.dcd
p562
aVstep7_339.dcd
p563
aVstep7_340.dcd
p564
aVstep7_341.dcd
p565
aVstep7_342.dcd
p566
aVstep7_343.dcd
p567
aVstep7_344.dcd
p568
aVstep7_345.dcd
p569
aVstep7_346.dcd
p570
aVstep7_347.dcd
p571
aVstep7_348.dcd
p572
aVstep7_349.dcd
p573
aVstep7_350.dcd
p574
aVstep7_351.dcd
p575
aVstep7_352.dcd
p576
aVstep7_353.dcd
p577
aVstep7_354.dcd
p578
aVstep7_355.dcd
p579
aVstep7_356.dcd
p580
aVstep7_357.dcd
p581
aVstep7_358.dcd
p582
aVstep7_359.dcd
p583
aVstep7_360.dcd
p584
aVstep7_361.dcd
p585
aVstep7_362.dcd
p586
aVstep7_363.dcd
p587
aVstep7_364.dcd
p588
aVstep7_365.dcd
p589
aVstep7_366.dcd
p590
aVstep7_367.dcd
p591
aVstep7_368.dcd
p592
aVstep7_369.dcd
p593
aVstep7_370.dcd
p594
aVstep7_371.dcd
p595
aVstep7_372.dcd
p596
aVstep7_373.dcd
p597
aVstep7_374.dcd
p598
aVstep7_375.dcd
p599
aVstep7_376.dcd
p600
aVstep7_377.dcd
p601
aVstep7_378.dcd
p602
aVstep7_379.dcd
p603
aVstep7_380.dcd
p604
aVstep7_381.dcd
p605
aVstep7_382.dcd
p606
aVstep7_383.dcd
p607
aVstep7_384.dcd
p608
aVstep7_385.dcd
p609
aVstep7_386.dcd
p610
aVstep7_387.dcd
p611
aVstep7_388.dcd
p612
aVstep7_389.dcd
p613
aVstep7_390.dcd
p614
aVstep7_391.dcd
p615
aVstep7_392.dcd
p616
aVstep7_393.dcd
p617
aVstep7_394.dcd
p618
aVstep7_395.dcd
p619
aVstep7_396.dcd
p620
aVstep7_397.dcd
p621
aVstep7_398.dcd
p622
aVstep7_399.dcd
p623
aVstep7_400.dcd
p624
aVstep7_401.dcd
p625
aVstep7_402.dcd
p626
aVstep7_403.dcd
p627
aVstep7_404.dcd
p628
aVstep7_405.dcd
p629
aVstep7_406.dcd
p630
aVstep7_407.dcd
p631
aVstep7_408.dcd
p632
aVstep7_409.dcd
p633
aVstep7_410.dcd
p634
aVstep7_411.dcd
p635
aVstep7_412.dcd
p636
aVstep7_413.dcd
p637
aVstep7_414.dcd
p638
aVstep7_415.dcd
p639
aVstep7_416.dcd
p640
aVstep7_417.dcd
p641
aVstep7_418.dcd
p642
aVstep7_419.dcd
p643
aVstep7_420.dcd
p644
aVstep7_421.dcd
p645
aVstep7_422.dcd
p646
aVstep7_423.dcd
p647
aVstep7_424.dcd
p648
aVstep7_425.dcd
p649
aVstep7_426.dcd
p650
aVstep7_427.dcd
p651
aVstep7_428.dcd
p652
aVstep7_429.dcd
p653
aVstep7_430.dcd
p654
aVstep7_431.dcd
p655
aVstep7_432.dcd
p656
aVstep7_433.dcd
p657
aVstep7_434.dcd
p658
aVstep7_435.dcd
p659
aVstep7_436.dcd
p660
aVstep7_437.dcd
p661
aVstep7_438.dcd
p662
aVstep7_439.dcd
p663
aVstep7_440.dcd
p664
aVstep7_441.dcd
p665
aVstep7_442.dcd
p666
aVstep7_443.dcd
p667
aVstep7_444.dcd
p668
aVstep7_445.dcd
p669
aVstep7_446.dcd
p670
aVstep7_447.dcd
p671
aVstep7_448.dcd
p672
aVstep7_449.dcd
p673
aVstep7_450.dcd
p674
aVstep7_451.dcd
p675
aVstep7_452.dcd
p676
aVstep7_453.dcd
p677
aVstep7_454.dcd
p678
aVstep7_455.dcd
p679
aVstep7_456.dcd
p680
aVstep7_457.dcd
p681
aVstep7_458.dcd
p682
aVstep7_459.dcd
p683
aVstep7_460.dcd
p684
aVstep7_461.dcd
p685
aVstep7_462.dcd
p686
aVstep7_463.dcd
p687
aVstep7_464.dcd
p688
aVstep7_465.dcd
p689
aVstep7_466.dcd
p690
aVstep7_467.dcd
p691
aVstep7_468.dcd
p692
aVstep7_469.dcd
p693
aVstep7_470.dcd
p694
aVstep7_471.dcd
p695
aVstep7_472.dcd
p696
aVstep7_473.dcd
p697
aVstep7_474.dcd
p698
aVstep7_475.dcd
p699
aVstep7_476.dcd
p700
aVstep7_477.dcd
p701
aVstep7_478.dcd
p702
aVstep7_479.dcd
p703
aVstep7_480.dcd
p704
aVstep7_481.dcd
p705
aVstep7_482.dcd
p706
aVstep7_483.dcd
p707
aVstep7_484.dcd
p708
aVstep7_485.dcd
p709
aVstep7_486.dcd
p710
aVstep7_487.dcd
p711
aVstep7_488.dcd
p712
aVstep7_489.dcd
p713
aVstep7_490.dcd
p714
aVstep7_491.dcd
p715
aVstep7_492.dcd
p716
aVstep7_493.dcd
p717
aVstep7_494.dcd
p718
aVstep7_495.dcd
p719
aVstep7_496.dcd
p720
aVstep7_497.dcd
p721
aVstep7_498.dcd
p722
aVstep7_499.dcd
p723
aVstep7_500.dcd
p724
aVstep7_501.dcd
p725
aVstep7_502.dcd
p726
aVstep7_503.dcd
p727
aVstep7_504.dcd
p728
aVstep7_505.dcd
p729
aVstep7_506.dcd
p730
aVstep7_507.dcd
p731
aVstep7_508.dcd
p732
aVstep7_509.dcd
p733
aVstep7_510.dcd
p734
aVstep7_511.dcd
p735
aVstep7_512.dcd
p736
aVstep7_513.dcd
p737
aVstep7_514.dcd
p738
aVstep7_515.dcd
p739
aVstep7_516.dcd
p740
aVstep7_517.dcd
p741
aVstep7_518.dcd
p742
aVstep7_519.dcd
p743
aVstep7_520.dcd
p744
aVstep7_521.dcd
p745
aVstep7_522.dcd
p746
aVstep7_523.dcd
p747
aVstep7_524.dcd
p748
aVstep7_525.dcd
p749
aVstep7_526.dcd
p750
aVstep7_527.dcd
p751
aVstep7_528.dcd
p752
aVstep7_529.dcd
p753
aVstep7_530.dcd
p754
aVstep7_531.dcd
p755
aVstep7_532.dcd
p756
aVstep7_533.dcd
p757
aVstep7_534.dcd
p758
aVstep7_535.dcd
p759
aVstep7_536.dcd
p760
aVstep7_537.dcd
p761
aVstep7_538.dcd
p762
aVstep7_539.dcd
p763
aVstep7_540.dcd
p764
aVstep7_541.dcd
p765
aVstep7_542.dcd
p766
aVstep7_543.dcd
p767
aVstep7_544.dcd
p768
aVstep7_545.dcd
p769
aVstep7_546.dcd
p770
aVstep7_547.dcd
p771
aVstep7_548.dcd
p772
aVstep7_549.dcd
p773
aVstep7_550.dcd
p774
aVstep7_551.dcd
p775
aVstep7_552.dcd
p776
aVstep7_553.dcd
p777
aVstep7_554.dcd
p778
aVstep7_555.dcd
p779
aVstep7_556.dcd
p780
aVstep7_557.dcd
p781
aVstep7_558.dcd
p782
aVstep7_559.dcd
p783
aVstep7_560.dcd
p784
aVstep7_561.dcd
p785
aVstep7_562.dcd
p786
aVstep7_563.dcd
p787
aVstep7_564.dcd
p788
aVstep7_565.dcd
p789
aVstep7_566.dcd
p790
aVstep7_567.dcd
p791
aVstep7_568.dcd
p792
aVstep7_569.dcd
p793
aVstep7_570.dcd
p794
aVstep7_571.dcd
p795
aVstep7_572.dcd
p796
aVstep7_573.dcd
p797
aVstep7_574.dcd
p798
aVstep7_575.dcd
p799
aVstep7_576.dcd
p800
aVstep7_577.dcd
p801
aVstep7_578.dcd
p802
aVstep7_579.dcd
p803
aVstep7_580.dcd
p804
aVstep7_581.dcd
p805
aVstep7_582.dcd
p806
aVstep7_583.dcd
p807
aVstep7_584.dcd
p808
aVstep7_585.dcd
p809
aVstep7_586.dcd
p810
aVstep7_587.dcd
p811
aVstep7_588.dcd
p812
aVstep7_589.dcd
p813
aVstep7_590.dcd
p814
aVstep7_591.dcd
p815
aVstep7_592.dcd
p816
aVstep7_593.dcd
p817
aVstep7_594.dcd
p818
aVstep7_595.dcd
p819
aVstep7_596.dcd
p820
aVstep7_597.dcd
p821
aVstep7_598.dcd
p822
aVstep7_599.dcd
p823
aVstep7_600.dcd
p824
aVstep7_601.dcd
p825
aVstep7_602.dcd
p826
aVstep7_603.dcd
p827
aVstep7_604.dcd
p828
aVstep7_605.dcd
p829
aVstep7_606.dcd
p830
aVstep7_607.dcd
p831
aVstep7_608.dcd
p832
aVstep7_609.dcd
p833
aVstep7_610.dcd
p834
aVstep7_611.dcd
p835
aVstep7_612.dcd
p836
aVstep7_613.dcd
p837
aVstep7_614.dcd
p838
aVstep7_615.dcd
p839
aVstep7_616.dcd
p840
aVstep7_617.dcd
p841
aVstep7_618.dcd
p842
aVstep7_619.dcd
p843
aVstep7_620.dcd
p844
aVstep7_621.dcd
p845
aVstep7_622.dcd
p846
aVstep7_623.dcd
p847
aVstep7_624.dcd
p848
aVstep7_625.dcd
p849
aVstep7_626.dcd
p850
aVstep7_627.dcd
p851
aVstep7_628.dcd
p852
aVstep7_629.dcd
p853
aVstep7_630.dcd
p854
aVstep7_631.dcd
p855
aVstep7_632.dcd
p856
aVstep7_633.dcd
p857
aVstep7_634.dcd
p858
aVstep7_635.dcd
p859
aVstep7_636.dcd
p860
aVstep7_637.dcd
p861
aVstep7_638.dcd
p862
aVstep7_639.dcd
p863
aVstep7_640.dcd
p864
aVstep7_641.dcd
p865
aVstep7_642.dcd
p866
aVstep7_643.dcd
p867
aVstep7_644.dcd
p868
aVstep7_645.dcd
p869
aVstep7_646.dcd
p870
aVstep7_647.dcd
p871
aVstep7_648.dcd
p872
aVstep7_649.dcd
p873
aVstep7_650.dcd
p874
aVstep7_651.dcd
p875
aVstep7_652.dcd
p876
aVstep7_653.dcd
p877
aVstep7_654.dcd
p878
aVstep7_655.dcd
p879
aVstep7_656.dcd
p880
aVstep7_657.dcd
p881
aVstep7_658.dcd
p882
aVstep7_659.dcd
p883
aVstep7_660.dcd
p884
aVstep7_661.dcd
p885
aVstep7_662.dcd
p886
aVstep7_663.dcd
p887
aVstep7_664.dcd
p888
aVstep7_665.dcd
p889
aVstep7_666.dcd
p890
aVstep7_667.dcd
p891
aVstep7_668.dcd
p892
aVstep7_669.dcd
p893
aVstep7_670.dcd
p894
aVstep7_671.dcd
p895
aVstep7_672.dcd
p896
aVstep7_673.dcd
p897
aVstep7_674.dcd
p898
aVstep7_675.dcd
p899
aVstep7_676.dcd
p900
aVstep7_677.dcd
p901
aVstep7_678.dcd
p902
aVstep7_679.dcd
p903
aVstep7_680.dcd
p904
aVstep7_681.dcd
p905
aVstep7_682.dcd
p906
aVstep7_683.dcd
p907
aVstep7_684.dcd
p908
aVstep7_685.dcd
p909
aVstep7_686.dcd
p910
aVstep7_687.dcd
p911
aVstep7_688.dcd
p912
aVstep7_689.dcd
p913
aVstep7_690.dcd
p914
aVstep7_691.dcd
p915
aVstep7_692.dcd
p916
aVstep7_693.dcd
p917
aVstep7_694.dcd
p918
aVstep7_695.dcd
p919
aVstep7_696.dcd
p920
aVstep7_697.dcd
p921
aVstep7_698.dcd
p922
aVstep7_699.dcd
p923
aVstep7_700.dcd
p924
aVstep7_701.dcd
p925
aVstep7_702.dcd
p926
aVstep7_703.dcd
p927
aVstep7_704.dcd
p928
aVstep7_705.dcd
p929
aVstep7_706.dcd
p930
aVstep7_707.dcd
p931
aVstep7_708.dcd
p932
aVstep7_709.dcd
p933
aVstep7_710.dcd
p934
aVstep7_711.dcd
p935
aVstep7_712.dcd
p936
aVstep7_713.dcd
p937
aVstep7_714.dcd
p938
aVstep7_715.dcd
p939
aVstep7_716.dcd
p940
aVstep7_717.dcd
p941
aVstep7_718.dcd
p942
aVstep7_719.dcd
p943
aVstep7_720.dcd
p944
aVstep7_721.dcd
p945
aVstep7_722.dcd
p946
aVstep7_723.dcd
p947
aVstep7_724.dcd
p948
aVstep7_725.dcd
p949
aVstep7_726.dcd
p950
aVstep7_727.dcd
p951
aVstep7_728.dcd
p952
aVstep7_729.dcd
p953
aVstep7_730.dcd
p954
aVstep7_731.dcd
p955
aVstep7_732.dcd
p956
aVstep7_733.dcd
p957
aVstep7_734.dcd
p958
aVstep7_735.dcd
p959
aVstep7_736.dcd
p960
aVstep7_737.dcd
p961
aVstep7_738.dcd
p962
aVstep7_739.dcd
p963
aVstep7_740.dcd
p964
aVstep7_741.dcd
p965
aVstep7_742.dcd
p966
aVstep7_743.dcd
p967
aVstep7_744.dcd
p968
aVstep7_745.dcd
p969
aVstep7_746.dcd
p970
aVstep7_747.dcd
p971
aVstep7_748.dcd
p972
aVstep7_749.dcd
p973
aVstep7_750.dcd
p974
asS'paraInfo'
p975
(lp976
(lp977
VNumber of Parameters
p978
aVFrame interval
p979
aVOutput name
p980
aVTotal number of atoms
p981
aVlipid query
p982
aVmax X coordinate
p983
aVmax Y coordinate
p984
aVqhull path
p985
aa(lp986
VNumber of Parameters
p987
aVFrame interval
p988
aVOutput name
p989
aVAxis
p990
aVMinimum value in the given axis
p991
aVMaximum value in the given axis
p992
aVBin size
p993
aVQuery
p994
aVTotal number of atoms
p995
aa(lp996
VNumber of Parameters
p997
aVFrame interval
p998
aVOutput name
p999
aVAxis
p1000
aVMinimum value in the given axis
p1001
aVMaximum value in the given axis
p1002
aVBin size
p1003
aVQuery
p1004
aVTotal number of atoms
p1005
aa(lp1006
VNumber of Parameters
p1007
aVFrame interval
p1008
aVOutput name
p1009
aVAxis
p1010
aVMinimum value in the given axis
p1011
aVMaximum value in the given axis
p1012
aVBin size
p1013
aVQuery
p1014
aVTotal number of atoms
p1015
aa(lp1016
VNumber of Parameters
p1017
aVFrame interval
p1018
aVOutput name
p1019
aVAxis
p1020
aVMinimum value in the given axis
p1021
aVMaximum value in the given axis
p1022
aVBin size
p1023
aVQuery
p1024
aVTotal number of atoms
p1025
aa(lp1026
VNumber of Parameters
p1027
aVFrame interval
p1028
aVOutput name
p1029
aVAxis
p1030
aVMinimum value in the given axis
p1031
aVMaximum value in the given axis
p1032
aVBin size
p1033
aVQuery
p1034
aVTotal number of atoms
p1035
aa(lp1036
VNumber of Parameters
p1037
aVFrame interval
p1038
aVOutput name
p1039
aVAxis
p1040
aVTotal number of atoms
p1041
aVsegment ID
p1042
aVresidue name
p1043
aVcharmm query
p1044
aa(lp1045
VNumber of Parameters
p1046
aVFrame interval
p1047
aVOutput name
p1048
aVTotal number of atoms
p1049
aVthickness query
p1050
aa(lp1051
VNumber of Parameters
p1052
aVFrame interval
p1053
aVOutput name
p1054
aVTotal number of atoms
p1055
aVthickness query
p1056
aasS'job_pkey'
p1057
(I321
tp1058
sS'path_output'
p1059
S'/home2/jcjeong/project/stanalyzer0/stanalyzer/media/jcjeong/'
p1060
sS'path_python'
p1061
V/export/apps/bin/python2.7
p1062
sS'job_title'
p1063
Vanalyzing trajectory
p1064
sS'pkey'
p1065
V5
p1066
sS'num_ps'
p1067
V5.0
p1068
sS'pdb_file'
p1069
Vstep5_assembly.pdb
p1070
sS'pbs_home'
p1071
S'/home2/jcjeong/project/stanalyzer0/stanalyzer/media/jcjeong/20131016155203522768UcixHi/pbs'
p1072
sS'base_path'
p1073
S'/imscratch/emiliawu/yeast_ecoli/ecoli_pe27_1/'
p1074
sS'date'
p1075
S'20131016155203522768'
p1076
sS'pbs'
p1077
V#!/bin/bash\u000a#PBS -l nodes=1:ppn=1\u000a#PBS -l mem=500mb\u000a#PBS -l walltime=72:00:00\u000a#PBS -l pcput=72:00:00\u000a#PBS -q default\u000a
p1078
sS'analyzer_home'
p1079
S'/home2/jcjeong/project/stanalyzer0/stanalyzer/static/analyzers'
p1080
sS'num_files'
p1081
V751
p1082
sS'ptitle'
p1083
VEcoli
p1084
sS'structure_file'
p1085
Vstep5_assembly.xplor_ext.psf
p1086
sS'dbName'
p1087
S'/home2/jcjeong/project/stanalyzer0/stanalyzer/stanalyzer.db'
p1088
s.