(dp0
S'pkey'
p1
V1
p2
sS'pbs_home'
p3
S'/home2/jcjeong/project/stanalyzer0/stanalyzer/media/jcjeong/20130111120741798733BKSQVH/pbs'
p4
sS'pbs'
p5
V#!/bin/csh\u000a#PBS -l nodes=1:ppn=1\u000a#PBS -l mem=500mb\u000a#PBS -l walltime=72:00:00\u000a#PBS -l cput=72:00:00\u000a#PBS -q default\u000a
p6
sS'job_pkey'
p7
(I13
tp8
sS'output_home'
p9
S'/home2/jcjeong/project/stanalyzer0/stanalyzer/media/jcjeong/20130111120741798733BKSQVH/'
p10
sS'analyzer_home'
p11
S'/home2/jcjeong/project/stanalyzer0/stanalyzer/static/analyzers'
p12
sS'paraInfo'
p13
(lp14
(lp15
VNumber of Parameters
p16
aa(lp17
VNumber of Parameters
p18
aVSegment ID
p19
aVSegment Name
p20
aVStart Residue
p21
aVTerminal Residue
p22
aasS'media_home'
p23
S'/home2/jcjeong/project/stanalyzer0/stanalyzer/media'
p24
sS'base_path'
p25
S'/home2/jcjeong/project/stanalyzer1/stanalyzer/trajectory/'
p26
sS'path_python'
p27
V/home/sunhwan/local/python/bin/python
p28
sS'Paras'
p29
(lp30
(lp31
V0
p32
aa(lp33
V4
p34
aV0
p35
aVPROA
p36
aV1
p37
aV34
p38
aasS'para_pkeys'
p39
(lp40
(lp41
I40
aa(lp42
I41
aI42
aI43
aI44
aI45
aasS'session_home'
p43
S'/home2/jcjeong/project/stanalyzer0/stanalyzer/media/jcjeong/20130111120741798733BKSQVH'
p44
sS'ptitle'
p45
Vproject1
p46
sS'structure_file'
p47
Vstep5_assembly.psf
p48
sS'trajectory'
p49
(lp50
Vstep7_633.dcd
p51
aVstep7_669.dcd
p52
aVstep7_670.dcd
p53
aVstep7_671.dcd
p54
aVstep7_672.dcd
p55
aVstep7_673.dcd
p56
aVstep7_674.dcd
p57
asS'date'
p58
S'20130111120741798733'
p59
sS'funcName'
p60
(lp61
Vbox
p62
aVhelix_tilt
p63
asS'path_output'
p64
S'/home2/jcjeong/project/stanalyzer0/stanalyzer/media/jcjeong/'
p65
sS'dbName'
p66
S'/home2/jcjeong/project/stanalyzer0/stanalyzer/stanalyzer.db'
p67
sS'job_title'
p68
Vanalyzing trajectory
p69
s.