(dp0
S'output_home'
p1
S'/home2/jcjeong/project/stanalyzer0/stanalyzer/media/jcjeong/20130718141620913020FC8HFJ/'
p2
sS'num_atoms'
p3
V18019
p4
sS'media_home'
p5
S'/home2/jcjeong/project/stanalyzer0/stanalyzer/media'
p6
sS'funcName'
p7
(lp8
Vsterol_tilt_tail
p9
asS'Paras'
p10
(lp11
(lp12
(lp13
I5
aa(lp14
V1
p15
aa(lp16
Vsterol_tail_300_568_tilt.dat
p17
aa(lp18
VMEMB
p19
aa(lp20
VCHL1
p21
aa(lp22
Vname C17 or name C25
p23
aaasS'para_pkeys'
p24
(lp25
(lp26
I1884
aI1885
aI1886
aI1887
aI1888
aI1889
aasS'session_home'
p27
S'/home2/jcjeong/project/stanalyzer0/stanalyzer/media/jcjeong/20130718141620913020FC8HFJ'
p28
sS'num_frame'
p29
V40
p30
sS'trajectory'
p31
(lp32
Vstep7_300.dcd
p33
aVstep7_301.dcd
p34
aVstep7_302.dcd
p35
aVstep7_303.dcd
p36
aVstep7_304.dcd
p37
aVstep7_305.dcd
p38
aVstep7_306.dcd
p39
aVstep7_307.dcd
p40
aVstep7_308.dcd
p41
aVstep7_309.dcd
p42
aVstep7_310.dcd
p43
aVstep7_311.dcd
p44
aVstep7_312.dcd
p45
aVstep7_313.dcd
p46
aVstep7_314.dcd
p47
aVstep7_315.dcd
p48
aVstep7_316.dcd
p49
aVstep7_317.dcd
p50
aVstep7_318.dcd
p51
aVstep7_319.dcd
p52
aVstep7_320.dcd
p53
aVstep7_321.dcd
p54
aVstep7_322.dcd
p55
aVstep7_323.dcd
p56
aVstep7_324.dcd
p57
aVstep7_325.dcd
p58
aVstep7_326.dcd
p59
aVstep7_327.dcd
p60
aVstep7_328.dcd
p61
aVstep7_329.dcd
p62
aVstep7_330.dcd
p63
aVstep7_331.dcd
p64
aVstep7_332.dcd
p65
aVstep7_333.dcd
p66
aVstep7_334.dcd
p67
aVstep7_335.dcd
p68
aVstep7_336.dcd
p69
aVstep7_337.dcd
p70
aVstep7_338.dcd
p71
aVstep7_339.dcd
p72
aVstep7_340.dcd
p73
aVstep7_341.dcd
p74
aVstep7_342.dcd
p75
aVstep7_343.dcd
p76
aVstep7_344.dcd
p77
aVstep7_345.dcd
p78
aVstep7_346.dcd
p79
aVstep7_347.dcd
p80
aVstep7_348.dcd
p81
aVstep7_349.dcd
p82
aVstep7_350.dcd
p83
aVstep7_351.dcd
p84
aVstep7_352.dcd
p85
aVstep7_353.dcd
p86
aVstep7_354.dcd
p87
aVstep7_355.dcd
p88
aVstep7_356.dcd
p89
aVstep7_357.dcd
p90
aVstep7_358.dcd
p91
aVstep7_359.dcd
p92
aVstep7_360.dcd
p93
aVstep7_361.dcd
p94
aVstep7_362.dcd
p95
aVstep7_363.dcd
p96
aVstep7_364.dcd
p97
aVstep7_365.dcd
p98
aVstep7_366.dcd
p99
aVstep7_367.dcd
p100
aVstep7_368.dcd
p101
aVstep7_369.dcd
p102
aVstep7_370.dcd
p103
aVstep7_371.dcd
p104
aVstep7_372.dcd
p105
aVstep7_373.dcd
p106
aVstep7_374.dcd
p107
aVstep7_375.dcd
p108
aVstep7_376.dcd
p109
aVstep7_377.dcd
p110
aVstep7_378.dcd
p111
aVstep7_379.dcd
p112
aVstep7_380.dcd
p113
aVstep7_381.dcd
p114
aVstep7_382.dcd
p115
aVstep7_383.dcd
p116
aVstep7_384.dcd
p117
aVstep7_385.dcd
p118
aVstep7_386.dcd
p119
aVstep7_387.dcd
p120
aVstep7_388.dcd
p121
aVstep7_389.dcd
p122
aVstep7_390.dcd
p123
aVstep7_391.dcd
p124
aVstep7_392.dcd
p125
aVstep7_393.dcd
p126
aVstep7_394.dcd
p127
aVstep7_395.dcd
p128
aVstep7_396.dcd
p129
aVstep7_397.dcd
p130
aVstep7_398.dcd
p131
aVstep7_399.dcd
p132
aVstep7_400.dcd
p133
aVstep7_401.dcd
p134
aVstep7_402.dcd
p135
aVstep7_403.dcd
p136
aVstep7_404.dcd
p137
aVstep7_405.dcd
p138
aVstep7_406.dcd
p139
aVstep7_407.dcd
p140
aVstep7_408.dcd
p141
aVstep7_409.dcd
p142
aVstep7_410.dcd
p143
aVstep7_411.dcd
p144
aVstep7_412.dcd
p145
aVstep7_413.dcd
p146
aVstep7_414.dcd
p147
aVstep7_415.dcd
p148
aVstep7_416.dcd
p149
aVstep7_417.dcd
p150
aVstep7_418.dcd
p151
aVstep7_419.dcd
p152
aVstep7_420.dcd
p153
aVstep7_421.dcd
p154
aVstep7_422.dcd
p155
aVstep7_423.dcd
p156
aVstep7_424.dcd
p157
aVstep7_425.dcd
p158
aVstep7_426.dcd
p159
aVstep7_427.dcd
p160
aVstep7_428.dcd
p161
aVstep7_429.dcd
p162
aVstep7_430.dcd
p163
aVstep7_431.dcd
p164
aVstep7_432.dcd
p165
aVstep7_433.dcd
p166
aVstep7_434.dcd
p167
aVstep7_435.dcd
p168
aVstep7_436.dcd
p169
aVstep7_437.dcd
p170
aVstep7_438.dcd
p171
aVstep7_439.dcd
p172
aVstep7_440.dcd
p173
aVstep7_441.dcd
p174
aVstep7_442.dcd
p175
aVstep7_443.dcd
p176
aVstep7_444.dcd
p177
aVstep7_445.dcd
p178
aVstep7_446.dcd
p179
aVstep7_447.dcd
p180
aVstep7_448.dcd
p181
aVstep7_449.dcd
p182
aVstep7_450.dcd
p183
aVstep7_451.dcd
p184
aVstep7_452.dcd
p185
aVstep7_453.dcd
p186
aVstep7_454.dcd
p187
aVstep7_455.dcd
p188
aVstep7_456.dcd
p189
aVstep7_457.dcd
p190
aVstep7_458.dcd
p191
aVstep7_459.dcd
p192
aVstep7_460.dcd
p193
aVstep7_461.dcd
p194
aVstep7_462.dcd
p195
aVstep7_463.dcd
p196
aVstep7_464.dcd
p197
aVstep7_465.dcd
p198
aVstep7_466.dcd
p199
aVstep7_467.dcd
p200
aVstep7_468.dcd
p201
aVstep7_469.dcd
p202
aVstep7_470.dcd
p203
aVstep7_471.dcd
p204
aVstep7_472.dcd
p205
aVstep7_473.dcd
p206
aVstep7_474.dcd
p207
aVstep7_475.dcd
p208
aVstep7_476.dcd
p209
aVstep7_477.dcd
p210
aVstep7_478.dcd
p211
aVstep7_479.dcd
p212
aVstep7_480.dcd
p213
aVstep7_481.dcd
p214
aVstep7_482.dcd
p215
aVstep7_483.dcd
p216
aVstep7_484.dcd
p217
aVstep7_485.dcd
p218
aVstep7_486.dcd
p219
aVstep7_487.dcd
p220
aVstep7_488.dcd
p221
aVstep7_489.dcd
p222
aVstep7_490.dcd
p223
aVstep7_491.dcd
p224
aVstep7_492.dcd
p225
aVstep7_493.dcd
p226
aVstep7_494.dcd
p227
aVstep7_495.dcd
p228
aVstep7_496.dcd
p229
aVstep7_497.dcd
p230
aVstep7_498.dcd
p231
aVstep7_499.dcd
p232
aVstep7_500.dcd
p233
aVstep7_501.dcd
p234
aVstep7_502.dcd
p235
aVstep7_503.dcd
p236
aVstep7_504.dcd
p237
aVstep7_505.dcd
p238
aVstep7_506.dcd
p239
aVstep7_507.dcd
p240
aVstep7_508.dcd
p241
aVstep7_509.dcd
p242
aVstep7_510.dcd
p243
aVstep7_511.dcd
p244
aVstep7_512.dcd
p245
aVstep7_513.dcd
p246
aVstep7_514.dcd
p247
aVstep7_515.dcd
p248
aVstep7_516.dcd
p249
aVstep7_517.dcd
p250
aVstep7_518.dcd
p251
aVstep7_519.dcd
p252
aVstep7_520.dcd
p253
aVstep7_521.dcd
p254
aVstep7_522.dcd
p255
aVstep7_523.dcd
p256
aVstep7_524.dcd
p257
aVstep7_525.dcd
p258
aVstep7_526.dcd
p259
aVstep7_527.dcd
p260
aVstep7_528.dcd
p261
aVstep7_529.dcd
p262
aVstep7_530.dcd
p263
aVstep7_531.dcd
p264
aVstep7_532.dcd
p265
aVstep7_533.dcd
p266
aVstep7_534.dcd
p267
aVstep7_535.dcd
p268
aVstep7_536.dcd
p269
aVstep7_537.dcd
p270
aVstep7_538.dcd
p271
aVstep7_539.dcd
p272
aVstep7_540.dcd
p273
aVstep7_541.dcd
p274
aVstep7_542.dcd
p275
aVstep7_543.dcd
p276
aVstep7_544.dcd
p277
aVstep7_545.dcd
p278
aVstep7_546.dcd
p279
aVstep7_547.dcd
p280
aVstep7_548.dcd
p281
aVstep7_549.dcd
p282
aVstep7_550.dcd
p283
aVstep7_551.dcd
p284
aVstep7_552.dcd
p285
aVstep7_553.dcd
p286
aVstep7_554.dcd
p287
aVstep7_555.dcd
p288
aVstep7_556.dcd
p289
aVstep7_557.dcd
p290
aVstep7_558.dcd
p291
aVstep7_559.dcd
p292
aVstep7_560.dcd
p293
aVstep7_561.dcd
p294
aVstep7_562.dcd
p295
aVstep7_563.dcd
p296
aVstep7_564.dcd
p297
aVstep7_565.dcd
p298
aVstep7_566.dcd
p299
aVstep7_567.dcd
p300
aVstep7_568.dcd
p301
asS'paraInfo'
p302
(lp303
(lp304
VNumber of Parameters
p305
aVFrame interval
p306
aVOutput name
p307
aVSegment ID
p308
aVResidue Name
p309
aVSelection Query
p310
aasS'job_pkey'
p311
(I217
tp312
sS'path_output'
p313
S'/home2/jcjeong/project/stanalyzer0/stanalyzer/media/jcjeong/'
p314
sS'path_python'
p315
V/export/apps/bin/python2.7
p316
sS'job_title'
p317
Vanalyzing trajectory
p318
sS'pkey'
p319
V1
p320
sS'num_ps'
p321
V5.0
p322
sS'pdb_file'
p323
Vstep5_assembly.pdb
p324
sS'pbs_home'
p325
S'/home2/jcjeong/project/stanalyzer0/stanalyzer/media/jcjeong/20130718141620913020FC8HFJ/pbs'
p326
sS'base_path'
p327
S'/imscratch/emiliawu/yeast_ecoli/yeast_pc_popi13_1/'
p328
sS'date'
p329
S'20130718141620913020'
p330
sS'pbs'
p331
V#!/bin/bash\u000a#PBS -l nodes=1:ppn=1\u000a#PBS -l mem=500mb\u000a#PBS -l walltime=72:00:00\u000a#PBS -l cput=72:00:00\u000a#PBS -q default\u000a\u000aexport LD_LIBRARY_PATH=/export/apps/compilers/gcc48/lib64\u000a\u000a
p332
sS'analyzer_home'
p333
S'/home2/jcjeong/project/stanalyzer0/stanalyzer/static/analyzers'
p334
sS'num_files'
p335
V269
p336
sS'ptitle'
p337
VST-analyzer test1
p338
sS'structure_file'
p339
Vstep5_assembly.xplor_ext.psf
p340
sS'dbName'
p341
S'/home2/jcjeong/project/stanalyzer0/stanalyzer/stanalyzer.db'
p342
s.