(dp0
S'output_home'
p1
S'/home2/jcjeong/project/stanalyzer0/stanalyzer/media/jcjeong/20130603125526288909d6WHCV/'
p2
sS'num_atoms'
p3
V0
p4
sS'media_home'
p5
S'/home2/jcjeong/project/stanalyzer0/stanalyzer/media'
p6
sS'funcName'
p7
(lp8
Vhelix_tilt
p9
asS'Paras'
p10
(lp11
(lp12
(lp13
I6
aa(lp14
V1
p15
aa(lp16
Voutput.dat
p17
aa(lp18
V
p19
aa(lp20
g19
aa(lp21
g19
aa(lp22
g19
aaasS'para_pkeys'
p23
(lp24
(lp25
I6897
aI6898
aI6899
aI6900
aI6901
aI6902
aI6903
aasS'session_home'
p26
S'/home2/jcjeong/project/stanalyzer0/stanalyzer/media/jcjeong/20130603125526288909d6WHCV'
p27
sS'num_frame'
p28
V0
p29
sS'trajectory'
p30
(lp31
g19
asS'paraInfo'
p32
(lp33
(lp34
VNumber of Parameters
p35
aVFrame interval
p36
aVOutput name
p37
aVSegment ID
p38
aVSegment Name
p39
aVStart Residue
p40
aVTerminal Residue
p41
aasS'job_pkey'
p42
(I396
tp43
sS'path_output'
p44
S'/home2/jcjeong/project/stanalyzer0/stanalyzer/media/jcjeong/'
p45
sS'path_python'
p46
Vpython
p47
sS'job_title'
p48
Vanalyzing trajectory
p49
sS'pkey'
p50
V1
p51
sS'num_ps'
p52
V0
p53
sS'pdb_file'
p54
V#hist_1.plo#
p55
sS'pbs_home'
p56
S'/home2/jcjeong/project/stanalyzer0/stanalyzer/media/jcjeong/20130603125526288909d6WHCV/pbs'
p57
sS'base_path'
p58
S'/home2/jcjeong/project/charmm/dol_dopc_1/'
p59
sS'date'
p60
S'20130603125526288909'
p61
sS'pbs'
p62
V#!/bin/bash\u000a#PBS -l nodes=1:ppn=1\u000a#PBS -l mem=500mb\u000a#PBS -l walltime=72:00:00\u000a#PBS -l cput=72:00:00\u000a#PBS -q charmm_nmr\u000a
p63
sS'analyzer_home'
p64
S'/home2/jcjeong/project/stanalyzer0/stanalyzer/static/analyzers'
p65
sS'num_files'
p66
V0
p67
sS'ptitle'
p68
Vcalculating helix
p69
sS'structure_file'
p70
V#hist_1.plo#
p71
sS'dbName'
p72
S'/home2/jcjeong/project/stanalyzer0/stanalyzer/stanalyzer.db'
p73
s.