(dp0
S'output_home'
p1
S'/home2/jcjeong/project/stanalyzer0/stanalyzer/media/jcjeong/2013071613214620505036i8IE/'
p2
sS'num_atoms'
p3
V18019
p4
sS'media_home'
p5
S'/home2/jcjeong/project/stanalyzer0/stanalyzer/media'
p6
sS'funcName'
p7
(lp8
Vlipid_per_area_voro
p9
asS'Paras'
p10
(lp11
(lp12
(lp13
I7
aa(lp14
V1
p15
aa(lp16
Vvoronoi_lipid_per_area1401_1403.dat
p17
aa(lp18
V18019
p19
aa(lp20
Vsegid MEMB and ((resname CHL1 and name O3) or (resname DOPC and (name C2 or name C21 or name C31)) or (resname POPC and (name C2 or name C21 or name C31)) or (resname POPI and (name C2 or name C21 or name C31)) or (resname POPI13 and (name C2 or name C21 or name C31)))
p21
aa(lp22
V47.2308807373
p23
aa(lp24
V47.2308807373
p25
aa(lp26
V/home2/jcjeong/project/qhull/qhull-2012.1/bin
p27
aaasS'para_pkeys'
p28
(lp29
(lp30
I1384
aI1385
aI1386
aI1387
aI1388
aI1389
aI1390
aI1391
aasS'session_home'
p31
S'/home2/jcjeong/project/stanalyzer0/stanalyzer/media/jcjeong/2013071613214620505036i8IE'
p32
sS'num_frame'
p33
V40
p34
sS'trajectory'
p35
(lp36
Vstep7_1064.dcd
p37
aVstep7_1065.dcd
p38
aVstep7_1066.dcd
p39
aVstep7_1067.dcd
p40
aVstep7_1068.dcd
p41
aVstep7_1069.dcd
p42
aVstep7_1070.dcd
p43
asS'paraInfo'
p44
(lp45
(lp46
VNumber of Parameters
p47
aVFrame interval
p48
aVOutput name
p49
aVTotal number of atoms
p50
aVlipid query
p51
aVmax X coordinate
p52
aVmax Y coordinate
p53
aVqhull path
p54
aasS'job_pkey'
p55
(I171
tp56
sS'path_output'
p57
S'/home2/jcjeong/project/stanalyzer0/stanalyzer/media/jcjeong/'
p58
sS'path_python'
p59
V/export/apps/bin/python2.7
p60
sS'job_title'
p61
Vanalyzing trajectory
p62
sS'pkey'
p63
V1
p64
sS'num_ps'
p65
V5.0
p66
sS'pdb_file'
p67
Vstep5_assembly.pdb
p68
sS'pbs_home'
p69
S'/home2/jcjeong/project/stanalyzer0/stanalyzer/media/jcjeong/2013071613214620505036i8IE/pbs'
p70
sS'base_path'
p71
S'/imscratch/emiliawu/yeast_ecoli/yeast_pc_popi13_1/'
p72
sS'date'
p73
S'20130716132146205050'
p74
sS'pbs'
p75
V#!/bin/bash\u000a#PBS -l nodes=1:ppn=1\u000a#PBS -l mem=500mb\u000a#PBS -l walltime=72:00:00\u000a#PBS -l cput=72:00:00\u000a#PBS -q default\u000a\u000aexport LD_LIBRARY_PATH=/export/apps/compilers/gcc48/lib64\u000a\u000a
p76
sS'analyzer_home'
p77
S'/home2/jcjeong/project/stanalyzer0/stanalyzer/static/analyzers'
p78
sS'num_files'
p79
V7
p80
sS'ptitle'
p81
VST-analyzer test1
p82
sS'structure_file'
p83
Vstep5_assembly.xplor_ext.psf
p84
sS'dbName'
p85
S'/home2/jcjeong/project/stanalyzer0/stanalyzer/stanalyzer.db'
p86
s.