(dp0
S'output_home'
p1
S'/home2/jcjeong/project/stanalyzer0/stanalyzer/media/jcjeong/20130716130148685851wT1eKp/'
p2
sS'num_atoms'
p3
V18019
p4
sS'media_home'
p5
S'/home2/jcjeong/project/stanalyzer0/stanalyzer/media'
p6
sS'funcName'
p7
(lp8
Vlipid_per_area_voro
p9
asS'Paras'
p10
(lp11
(lp12
(lp13
I7
aa(lp14
V1
p15
aa(lp16
Vvoronoi_lipid_per_area.dat
p17
aa(lp18
V18019
p19
aa(lp20
Vsegid MEMB and ((resname CHL1 and name O3) or (resname DOPC and (name C2 or name C21 or name C31)) or (resname POPC and (name C2 or name C21 or name C31)) or (resname POPI and (name C2 or name C21 or name C31)) or (resname POPI13 and (name C2 or name C21 or name C31)))
p21
aa(lp22
V50.1607666016
p23
aa(lp24
V50.1607666016
p25
aa(lp26
V/home2/jcjeong/project/qhull/qhull-2012.1/bin
p27
aaasS'para_pkeys'
p28
(lp29
(lp30
I1360
aI1361
aI1362
aI1363
aI1364
aI1365
aI1366
aI1367
aasS'session_home'
p31
S'/home2/jcjeong/project/stanalyzer0/stanalyzer/media/jcjeong/20130716130148685851wT1eKp'
p32
sS'num_frame'
p33
V40
p34
sS'trajectory'
p35
(lp36
Vstep7_0.dcd
p37
aVstep7_1.dcd
p38
aVstep7_2.dcd
p39
aVstep7_3.dcd
p40
aVstep7_4.dcd
p41
aVstep7_5.dcd
p42
aVstep7_6.dcd
p43
aVstep7_7.dcd
p44
aVstep7_8.dcd
p45
aVstep7_9.dcd
p46
aVstep7_10.dcd
p47
asS'paraInfo'
p48
(lp49
(lp50
VNumber of Parameters
p51
aVFrame interval
p52
aVOutput name
p53
aVTotal number of atoms
p54
aVlipid query
p55
aVmax X coordinate
p56
aVmax Y coordinate
p57
aVqhull path
p58
aasS'job_pkey'
p59
(I168
tp60
sS'path_output'
p61
S'/home2/jcjeong/project/stanalyzer0/stanalyzer/media/jcjeong/'
p62
sS'path_python'
p63
V/export/apps/bin/python2.7
p64
sS'job_title'
p65
Vanalyzing trajectory
p66
sS'pkey'
p67
V1
p68
sS'num_ps'
p69
V5.0
p70
sS'pdb_file'
p71
Vstep5_assembly.pdb
p72
sS'pbs_home'
p73
S'/home2/jcjeong/project/stanalyzer0/stanalyzer/media/jcjeong/20130716130148685851wT1eKp/pbs'
p74
sS'base_path'
p75
S'/imscratch/emiliawu/yeast_ecoli/yeast_pc_popi13_1/'
p76
sS'date'
p77
S'20130716130148685851'
p78
sS'pbs'
p79
V#!/bin/bash\u000a#PBS -l nodes=1:ppn=1\u000a#PBS -l mem=500mb\u000a#PBS -l walltime=72:00:00\u000a#PBS -l cput=72:00:00\u000a#PBS -q default\u000a\u000aexport LD_LIBRARY_PATH=/export/apps/compilers/gcc48/lib64\u000a\u000a
p80
sS'analyzer_home'
p81
S'/home2/jcjeong/project/stanalyzer0/stanalyzer/static/analyzers'
p82
sS'num_files'
p83
V11
p84
sS'ptitle'
p85
VST-analyzer test1
p86
sS'structure_file'
p87
Vstep5_assembly.xplor_ext.psf
p88
sS'dbName'
p89
S'/home2/jcjeong/project/stanalyzer0/stanalyzer/stanalyzer.db'
p90
s.