(dp0
S'output_home'
p1
S'/home2/jcjeong/project/stanalyzer0/stanalyzer/media/jcjeong/20130801105447796221voZl6j/'
p2
sS'num_atoms'
p3
V36855
p4
sS'media_home'
p5
S'/home2/jcjeong/project/stanalyzer0/stanalyzer/media'
p6
sS'funcName'
p7
(lp8
Vrmsf
p9
asS'Paras'
p10
(lp11
(lp12
(lp13
I5
aa(lp14
V1
p15
aa(lp16
Vrmsf_ouput_atom.dat
p17
aa(lp18
Vsegid PROA and name CA
p19
aa(lp20
Vsegid PROA
p21
aa(lp22
VFalse
p23
aaasS'para_pkeys'
p24
(lp25
(lp26
I1989
aI1990
aI1991
aI1992
aI1993
aI1994
aasS'session_home'
p27
S'/home2/jcjeong/project/stanalyzer0/stanalyzer/media/jcjeong/20130801105447796221voZl6j'
p28
sS'num_frame'
p29
V20
p30
sS'trajectory'
p31
(lp32
Vmysystem_01.dcd
p33
asS'paraInfo'
p34
(lp35
(lp36
VNumber of Parameters
p37
aVFrame interval
p38
aVOutput name
p39
aVAlign Selection
p40
aVRMSD Selection
p41
aVCalculate average on residue
p42
aasS'job_pkey'
p43
(I232
tp44
sS'path_output'
p45
S'/home2/jcjeong/project/stanalyzer0/stanalyzer/media/jcjeong/'
p46
sS'path_python'
p47
V/export/apps/bin/python2.7
p48
sS'job_title'
p49
Vanalyzing trajectory
p50
sS'pkey'
p51
V2
p52
sS'num_ps'
p53
V2.0
p54
sS'pdb_file'
p55
Vmysystem.pdb
p56
sS'pbs_home'
p57
S'/home2/jcjeong/project/stanalyzer0/stanalyzer/media/jcjeong/20130801105447796221voZl6j/pbs'
p58
sS'base_path'
p59
S'/home2/jcjeong/project/stanalyzer0/stanalyzer/trajectory/protein/'
p60
sS'date'
p61
S'20130801105447796221'
p62
sS'pbs'
p63
V#!/bin/bash\u000a#PBS -l nodes=1:ppn=1\u000a#PBS -l mem=500mb\u000a#PBS -l walltime=72:00:00\u000a#PBS -l cput=72:00:00\u000a#PBS -q default\u000a\u000aexport LD_LIBRARY_PATH=/export/apps/compilers/gcc48/lib64\u000a\u000a
p64
sS'analyzer_home'
p65
S'/home2/jcjeong/project/stanalyzer0/stanalyzer/static/analyzers'
p66
sS'num_files'
p67
V1
p68
sS'ptitle'
p69
VMy system: alpha helix
p70
sS'structure_file'
p71
Vmysystem.psf
p72
sS'dbName'
p73
S'/home2/jcjeong/project/stanalyzer0/stanalyzer/stanalyzer.db'
p74
s.