(dp0
S'output_home'
p1
S'/home2/jcjeong/project/stanalyzer0/stanalyzer/media/jcjeong/20130529110737163717h6lYEP/'
p2
sS'num_atoms'
p3
V28935
p4
sS'media_home'
p5
S'/home2/jcjeong/project/stanalyzer0/stanalyzer/media'
p6
sS'funcName'
p7
(lp8
Vordpara_charmm
p9
asS'Paras'
p10
(lp11
(lp12
(lp13
I7
aa(lp14
V1
p15
ag15
ag15
ag15
aa(lp16
Vordpara_C2_DXPE_200_561.dat
p17
aVordpara_C3_DXPE_200_561.dat
p18
aVordpara_C2_DPPE_200_561.dat
p19
aVordpara_C3_DPPE_200_561.dat
p20
aa(lp21
VZ
p22
ag22
ag22
ag22
aa(lp23
V16170
p24
aV16170
p25
aV16170
p26
aV16170
p27
aa(lp28
VMEMB
p29
aVMEMB
p30
aVMEMB
p31
aVMEMB
p32
aa(lp33
VDXPE
p34
aVDXPE
p35
aVDPPE
p36
aVDPPE
p37
aa(lp38
Vname C2* and not (name C2 or name C21)
p39
aVname C3* and not (name C3 or name C31)
p40
aVname C2* and not (name C2 or name C21)
p41
aVname C3* and not (name C3 or name C31)
p42
aaasS'para_pkeys'
p43
(lp44
(lp45
I6247
aI6248
aI6249
aI6250
aI6251
aI6252
aI6253
aI6254
aI6255
aI6256
aI6257
aI6258
aI6259
aI6260
aI6261
aI6262
aI6263
aI6264
aI6265
aI6266
aI6267
aI6268
aI6269
aI6270
aI6271
aI6272
aI6273
aI6274
aI6275
aasS'session_home'
p46
S'/home2/jcjeong/project/stanalyzer0/stanalyzer/media/jcjeong/20130529110737163717h6lYEP'
p47
sS'num_frame'
p48
V40
p49
sS'trajectory'
p50
(lp51
Vstep7_200.dcd
p52
aVstep7_201.dcd
p53
aVstep7_202.dcd
p54
aVstep7_203.dcd
p55
aVstep7_204.dcd
p56
aVstep7_205.dcd
p57
aVstep7_206.dcd
p58
aVstep7_207.dcd
p59
aVstep7_208.dcd
p60
aVstep7_209.dcd
p61
aVstep7_210.dcd
p62
aVstep7_211.dcd
p63
aVstep7_212.dcd
p64
aVstep7_213.dcd
p65
aVstep7_214.dcd
p66
aVstep7_215.dcd
p67
aVstep7_216.dcd
p68
aVstep7_217.dcd
p69
aVstep7_218.dcd
p70
aVstep7_219.dcd
p71
aVstep7_220.dcd
p72
aVstep7_221.dcd
p73
aVstep7_222.dcd
p74
aVstep7_223.dcd
p75
aVstep7_224.dcd
p76
aVstep7_225.dcd
p77
aVstep7_226.dcd
p78
aVstep7_227.dcd
p79
aVstep7_228.dcd
p80
aVstep7_229.dcd
p81
aVstep7_230.dcd
p82
aVstep7_231.dcd
p83
aVstep7_232.dcd
p84
aVstep7_233.dcd
p85
aVstep7_234.dcd
p86
aVstep7_235.dcd
p87
aVstep7_236.dcd
p88
aVstep7_237.dcd
p89
aVstep7_238.dcd
p90
aVstep7_239.dcd
p91
aVstep7_240.dcd
p92
aVstep7_241.dcd
p93
aVstep7_242.dcd
p94
aVstep7_243.dcd
p95
aVstep7_244.dcd
p96
aVstep7_245.dcd
p97
aVstep7_246.dcd
p98
aVstep7_247.dcd
p99
aVstep7_248.dcd
p100
aVstep7_249.dcd
p101
aVstep7_250.dcd
p102
aVstep7_251.dcd
p103
aVstep7_252.dcd
p104
aVstep7_253.dcd
p105
aVstep7_254.dcd
p106
aVstep7_255.dcd
p107
aVstep7_256.dcd
p108
aVstep7_257.dcd
p109
aVstep7_258.dcd
p110
aVstep7_259.dcd
p111
aVstep7_260.dcd
p112
aVstep7_261.dcd
p113
aVstep7_262.dcd
p114
aVstep7_263.dcd
p115
aVstep7_264.dcd
p116
aVstep7_265.dcd
p117
aVstep7_266.dcd
p118
aVstep7_267.dcd
p119
aVstep7_268.dcd
p120
aVstep7_269.dcd
p121
aVstep7_270.dcd
p122
aVstep7_271.dcd
p123
aVstep7_272.dcd
p124
aVstep7_273.dcd
p125
aVstep7_274.dcd
p126
aVstep7_275.dcd
p127
aVstep7_276.dcd
p128
aVstep7_277.dcd
p129
aVstep7_278.dcd
p130
aVstep7_279.dcd
p131
aVstep7_280.dcd
p132
aVstep7_281.dcd
p133
aVstep7_282.dcd
p134
aVstep7_283.dcd
p135
aVstep7_284.dcd
p136
aVstep7_285.dcd
p137
aVstep7_286.dcd
p138
aVstep7_287.dcd
p139
aVstep7_288.dcd
p140
aVstep7_289.dcd
p141
aVstep7_290.dcd
p142
aVstep7_291.dcd
p143
aVstep7_292.dcd
p144
aVstep7_293.dcd
p145
aVstep7_294.dcd
p146
aVstep7_295.dcd
p147
aVstep7_296.dcd
p148
aVstep7_297.dcd
p149
aVstep7_298.dcd
p150
aVstep7_299.dcd
p151
aVstep7_300.dcd
p152
aVstep7_301.dcd
p153
aVstep7_302.dcd
p154
aVstep7_303.dcd
p155
aVstep7_304.dcd
p156
aVstep7_305.dcd
p157
aVstep7_306.dcd
p158
aVstep7_307.dcd
p159
aVstep7_308.dcd
p160
aVstep7_309.dcd
p161
aVstep7_310.dcd
p162
aVstep7_311.dcd
p163
aVstep7_312.dcd
p164
aVstep7_313.dcd
p165
aVstep7_314.dcd
p166
aVstep7_315.dcd
p167
aVstep7_316.dcd
p168
aVstep7_317.dcd
p169
aVstep7_318.dcd
p170
aVstep7_319.dcd
p171
aVstep7_320.dcd
p172
aVstep7_321.dcd
p173
aVstep7_322.dcd
p174
aVstep7_323.dcd
p175
aVstep7_324.dcd
p176
aVstep7_325.dcd
p177
aVstep7_326.dcd
p178
aVstep7_327.dcd
p179
aVstep7_328.dcd
p180
aVstep7_329.dcd
p181
aVstep7_330.dcd
p182
aVstep7_331.dcd
p183
aVstep7_332.dcd
p184
aVstep7_333.dcd
p185
aVstep7_334.dcd
p186
aVstep7_335.dcd
p187
aVstep7_336.dcd
p188
aVstep7_337.dcd
p189
aVstep7_338.dcd
p190
aVstep7_339.dcd
p191
aVstep7_340.dcd
p192
aVstep7_341.dcd
p193
aVstep7_342.dcd
p194
aVstep7_343.dcd
p195
aVstep7_344.dcd
p196
aVstep7_345.dcd
p197
aVstep7_346.dcd
p198
aVstep7_347.dcd
p199
aVstep7_348.dcd
p200
aVstep7_349.dcd
p201
aVstep7_350.dcd
p202
aVstep7_351.dcd
p203
aVstep7_352.dcd
p204
aVstep7_353.dcd
p205
aVstep7_354.dcd
p206
aVstep7_355.dcd
p207
aVstep7_356.dcd
p208
aVstep7_357.dcd
p209
aVstep7_358.dcd
p210
aVstep7_359.dcd
p211
aVstep7_360.dcd
p212
aVstep7_361.dcd
p213
aVstep7_362.dcd
p214
aVstep7_363.dcd
p215
aVstep7_364.dcd
p216
aVstep7_365.dcd
p217
aVstep7_366.dcd
p218
aVstep7_367.dcd
p219
aVstep7_368.dcd
p220
aVstep7_369.dcd
p221
aVstep7_370.dcd
p222
aVstep7_371.dcd
p223
aVstep7_372.dcd
p224
aVstep7_373.dcd
p225
aVstep7_374.dcd
p226
aVstep7_375.dcd
p227
aVstep7_376.dcd
p228
aVstep7_377.dcd
p229
aVstep7_378.dcd
p230
aVstep7_379.dcd
p231
aVstep7_380.dcd
p232
aVstep7_381.dcd
p233
aVstep7_382.dcd
p234
aVstep7_383.dcd
p235
aVstep7_384.dcd
p236
aVstep7_385.dcd
p237
aVstep7_386.dcd
p238
aVstep7_387.dcd
p239
aVstep7_388.dcd
p240
aVstep7_389.dcd
p241
aVstep7_390.dcd
p242
aVstep7_391.dcd
p243
aVstep7_392.dcd
p244
aVstep7_393.dcd
p245
aVstep7_394.dcd
p246
aVstep7_395.dcd
p247
aVstep7_396.dcd
p248
aVstep7_397.dcd
p249
aVstep7_398.dcd
p250
aVstep7_399.dcd
p251
aVstep7_400.dcd
p252
aVstep7_401.dcd
p253
aVstep7_402.dcd
p254
aVstep7_403.dcd
p255
aVstep7_404.dcd
p256
aVstep7_405.dcd
p257
aVstep7_406.dcd
p258
aVstep7_407.dcd
p259
aVstep7_408.dcd
p260
aVstep7_409.dcd
p261
aVstep7_410.dcd
p262
aVstep7_411.dcd
p263
aVstep7_412.dcd
p264
aVstep7_413.dcd
p265
aVstep7_414.dcd
p266
aVstep7_415.dcd
p267
aVstep7_416.dcd
p268
aVstep7_417.dcd
p269
aVstep7_418.dcd
p270
aVstep7_419.dcd
p271
aVstep7_420.dcd
p272
aVstep7_421.dcd
p273
aVstep7_422.dcd
p274
aVstep7_423.dcd
p275
aVstep7_424.dcd
p276
aVstep7_425.dcd
p277
aVstep7_426.dcd
p278
aVstep7_427.dcd
p279
aVstep7_428.dcd
p280
aVstep7_429.dcd
p281
aVstep7_430.dcd
p282
aVstep7_431.dcd
p283
aVstep7_432.dcd
p284
aVstep7_433.dcd
p285
aVstep7_434.dcd
p286
aVstep7_435.dcd
p287
aVstep7_436.dcd
p288
aVstep7_437.dcd
p289
aVstep7_438.dcd
p290
aVstep7_439.dcd
p291
aVstep7_440.dcd
p292
aVstep7_441.dcd
p293
aVstep7_442.dcd
p294
aVstep7_443.dcd
p295
aVstep7_444.dcd
p296
aVstep7_445.dcd
p297
aVstep7_446.dcd
p298
aVstep7_447.dcd
p299
aVstep7_448.dcd
p300
aVstep7_449.dcd
p301
aVstep7_450.dcd
p302
aVstep7_451.dcd
p303
aVstep7_452.dcd
p304
aVstep7_453.dcd
p305
aVstep7_454.dcd
p306
aVstep7_455.dcd
p307
aVstep7_456.dcd
p308
aVstep7_457.dcd
p309
aVstep7_458.dcd
p310
aVstep7_459.dcd
p311
aVstep7_460.dcd
p312
aVstep7_461.dcd
p313
aVstep7_462.dcd
p314
aVstep7_463.dcd
p315
aVstep7_464.dcd
p316
aVstep7_465.dcd
p317
aVstep7_466.dcd
p318
aVstep7_467.dcd
p319
aVstep7_468.dcd
p320
aVstep7_469.dcd
p321
aVstep7_470.dcd
p322
aVstep7_471.dcd
p323
aVstep7_472.dcd
p324
aVstep7_473.dcd
p325
aVstep7_474.dcd
p326
aVstep7_475.dcd
p327
aVstep7_476.dcd
p328
aVstep7_477.dcd
p329
aVstep7_478.dcd
p330
aVstep7_479.dcd
p331
aVstep7_480.dcd
p332
aVstep7_481.dcd
p333
aVstep7_482.dcd
p334
aVstep7_483.dcd
p335
aVstep7_484.dcd
p336
aVstep7_485.dcd
p337
aVstep7_486.dcd
p338
aVstep7_487.dcd
p339
aVstep7_488.dcd
p340
aVstep7_489.dcd
p341
aVstep7_490.dcd
p342
aVstep7_491.dcd
p343
aVstep7_492.dcd
p344
aVstep7_493.dcd
p345
aVstep7_494.dcd
p346
aVstep7_495.dcd
p347
aVstep7_496.dcd
p348
aVstep7_497.dcd
p349
aVstep7_498.dcd
p350
aVstep7_499.dcd
p351
aVstep7_500.dcd
p352
aVstep7_501.dcd
p353
aVstep7_502.dcd
p354
aVstep7_503.dcd
p355
aVstep7_504.dcd
p356
aVstep7_505.dcd
p357
aVstep7_506.dcd
p358
aVstep7_507.dcd
p359
aVstep7_508.dcd
p360
aVstep7_509.dcd
p361
aVstep7_510.dcd
p362
aVstep7_511.dcd
p363
aVstep7_512.dcd
p364
aVstep7_513.dcd
p365
aVstep7_514.dcd
p366
aVstep7_515.dcd
p367
aVstep7_516.dcd
p368
aVstep7_517.dcd
p369
aVstep7_518.dcd
p370
aVstep7_519.dcd
p371
aVstep7_520.dcd
p372
aVstep7_521.dcd
p373
aVstep7_522.dcd
p374
aVstep7_523.dcd
p375
aVstep7_524.dcd
p376
aVstep7_525.dcd
p377
aVstep7_526.dcd
p378
aVstep7_527.dcd
p379
aVstep7_528.dcd
p380
aVstep7_529.dcd
p381
aVstep7_530.dcd
p382
aVstep7_531.dcd
p383
aVstep7_532.dcd
p384
aVstep7_533.dcd
p385
aVstep7_534.dcd
p386
aVstep7_535.dcd
p387
aVstep7_536.dcd
p388
aVstep7_537.dcd
p389
aVstep7_538.dcd
p390
aVstep7_539.dcd
p391
aVstep7_540.dcd
p392
aVstep7_541.dcd
p393
aVstep7_542.dcd
p394
aVstep7_543.dcd
p395
aVstep7_544.dcd
p396
aVstep7_545.dcd
p397
aVstep7_546.dcd
p398
aVstep7_547.dcd
p399
aVstep7_548.dcd
p400
aVstep7_549.dcd
p401
aVstep7_550.dcd
p402
aVstep7_551.dcd
p403
aVstep7_552.dcd
p404
aVstep7_553.dcd
p405
aVstep7_554.dcd
p406
aVstep7_555.dcd
p407
aVstep7_556.dcd
p408
aVstep7_557.dcd
p409
aVstep7_558.dcd
p410
aVstep7_559.dcd
p411
aVstep7_560.dcd
p412
aVstep7_561.dcd
p413
asS'paraInfo'
p414
(lp415
(lp416
VNumber of Parameters
p417
aVFrame interval
p418
aVOutput name
p419
aVAxis
p420
aVTotal number of atoms
p421
aVsegment ID
p422
aVresidue name
p423
aVcharmm query
p424
aasS'job_pkey'
p425
(I375
tp426
sS'path_output'
p427
S'/home2/jcjeong/project/stanalyzer0/stanalyzer/media/jcjeong/'
p428
sS'path_python'
p429
V/home/sunhwan/local/python/bin/python
p430
sS'job_title'
p431
Vanalyzing trajectory
p432
sS'pkey'
p433
V1
p434
sS'num_ps'
p435
V5.0
p436
sS'pdb_file'
p437
Vstep5_assembly.pdb
p438
sS'pbs_home'
p439
S'/home2/jcjeong/project/stanalyzer0/stanalyzer/media/jcjeong/20130529110737163717h6lYEP/pbs'
p440
sS'base_path'
p441
S'/home2/jcjeong/project/charmm/emilia/'
p442
sS'date'
p443
S'20130529110737163717'
p444
sS'pbs'
p445
V#!/bin/bash\u000a#PBS -l nodes=1:ppn=1\u000a#PBS -l mem=500mb\u000a#PBS -l walltime=72:00:00\u000a#PBS -l cput=72:00:00\u000a#PBS -q charmm_nmr\u000a
p446
sS'analyzer_home'
p447
S'/home2/jcjeong/project/stanalyzer0/stanalyzer/static/analyzers'
p448
sS'num_files'
p449
V362
p450
sS'ptitle'
p451
Vcalculating helix
p452
sS'structure_file'
p453
Vstep5_assembly.xplor_ext.psf
p454
sS'dbName'
p455
S'/home2/jcjeong/project/stanalyzer0/stanalyzer/stanalyzer.db'
p456
s.