(dp0
S'pkey'
p1
V4
p2
sS'pbs_home'
p3
S'/home2/jcjeong/project/stanalyzer0/stanalyzer/media/jcjeong/20130111120027669417RZQB1i/pbs'
p4
sS'pbs'
p5
V#!/bin/csh\u000a#PBS -l nodes=1:ppn=1\u000a#PBS -l mem=500mb\u000a#PBS -l walltime=72:00:00\u000a#PBS -l cput=72:00:00\u000a#PBS -q default\u000a
p6
sS'job_pkey'
p7
(I12
tp8
sS'output_home'
p9
S'/home2/jcjeong/project/stanalyzer0/stanalyzer/media/jcjeong/20130111120027669417RZQB1i/'
p10
sS'analyzer_home'
p11
S'/home2/jcjeong/project/stanalyzer0/stanalyzer/static/analyzers'
p12
sS'paraInfo'
p13
(lp14
(lp15
VNumber of Parameters
p16
aVSegment ID
p17
aVSegment Name
p18
aVStart Residue
p19
aVTerminal Residue
p20
aasS'media_home'
p21
S'/home2/jcjeong/project/stanalyzer0/stanalyzer/media'
p22
sS'base_path'
p23
S'/home2/jcjeong/project/stanalyzer1/stanalyzer/trajectory/'
p24
sS'path_python'
p25
V/home/sunhwan/local/python/bin/python
p26
sS'Paras'
p27
(lp28
(lp29
V4
p30
aV0
p31
aVPROA
p32
aV1
p33
aV18
p34
aasS'para_pkeys'
p35
(lp36
(lp37
I35
aI36
aI37
aI38
aI39
aasS'session_home'
p38
S'/home2/jcjeong/project/stanalyzer0/stanalyzer/media/jcjeong/20130111120027669417RZQB1i'
p39
sS'ptitle'
p40
Vproject3
p41
sS'structure_file'
p42
Vstep5_assembly.psf
p43
sS'trajectory'
p44
(lp45
Vstep7_633.dcd
p46
aVstep7_669.dcd
p47
aVstep7_670.dcd
p48
aVstep7_671.dcd
p49
asS'date'
p50
S'20130111120027669417'
p51
sS'funcName'
p52
(lp53
Vhelix_tilt
p54
asS'path_output'
p55
S'/home2/jcjeong/project/stanalyzer0/stanalyzer/media/jcjeong/'
p56
sS'dbName'
p57
S'/home2/jcjeong/project/stanalyzer0/stanalyzer/stanalyzer.db'
p58
sS'job_title'
p59
Vanalyzing trajectory
p60
s.