(dp0
S'output_home'
p1
S'/home2/jcjeong/project/stanalyzer0/stanalyzer/media/jcjeong/20130502150952564491Ycmf9V/'
p2
sS'num_atoms'
p3
V28935
p4
sS'media_home'
p5
S'/home2/jcjeong/project/stanalyzer0/stanalyzer/media'
p6
sS'funcName'
p7
(lp8
Vordpara_dopc
p9
asS'Paras'
p10
(lp11
(lp12
(lp13
I4
aa(lp14
V1
p15
aa(lp16
Vordpara_depe_dcd710_2_pbs.dat
p17
aa(lp18
VZ
p19
aa(lp20
V28935
p21
aaasS'para_pkeys'
p22
(lp23
(lp24
I5567
aI5568
aI5569
aI5570
aI5571
aasS'session_home'
p25
S'/home2/jcjeong/project/stanalyzer0/stanalyzer/media/jcjeong/20130502150952564491Ycmf9V'
p26
sS'num_frame'
p27
V40
p28
sS'trajectory'
p29
(lp30
Vstep7_710.dcd
p31
aVstep7_711.dcd
p32
aVstep7_712.dcd
p33
asS'paraInfo'
p34
(lp35
(lp36
VNumber of Parameters
p37
aVFrame interval
p38
aVOutput name
p39
aVAxis
p40
aVTotal number of atoms
p41
aasS'job_pkey'
p42
(I291
tp43
sS'path_output'
p44
S'/home2/jcjeong/project/stanalyzer0/stanalyzer/media/jcjeong/'
p45
sS'path_python'
p46
V/home/sunhwan/local/python/bin/python
p47
sS'job_title'
p48
Vanalyzing trajectory
p49
sS'pkey'
p50
V1
p51
sS'num_ps'
p52
V5.0
p53
sS'pdb_file'
p54
Vstep5_assembly.pdb
p55
sS'pbs_home'
p56
S'/home2/jcjeong/project/stanalyzer0/stanalyzer/media/jcjeong/20130502150952564491Ycmf9V/pbs'
p57
sS'base_path'
p58
S'/home2/jcjeong/project/charmm/emilia/'
p59
sS'date'
p60
S'20130502150952564491'
p61
sS'pbs'
p62
V#!/bin/bash\u000a#PBS -l nodes=1:ppn=1\u000a#PBS -l mem=500mb\u000a#PBS -l walltime=72:00:00\u000a#PBS -l cput=72:00:00\u000a#PBS -q charmm_nmr\u000a
p63
sS'analyzer_home'
p64
S'/home2/jcjeong/project/stanalyzer0/stanalyzer/static/analyzers'
p65
sS'num_files'
p66
V3
p67
sS'ptitle'
p68
Vcalculating helix
p69
sS'structure_file'
p70
Vstep5_assembly.xplor_ext.psf
p71
sS'dbName'
p72
S'/home2/jcjeong/project/stanalyzer0/stanalyzer/stanalyzer.db'
p73
s.