(dp0
S'output_home'
p1
S'/home2/jcjeong/project/stanalyzer0/stanalyzer/media/jcjeong/20130417154434003921YQNbiV/'
p2
sS'num_atoms'
p3
V36855
p4
sS'media_home'
p5
S'/home2/jcjeong/project/stanalyzer0/stanalyzer/media'
p6
sS'funcName'
p7
(lp8
Vbox
p9
aVhelix_tilt
p10
aVdensity
p11
asS'Paras'
p12
(lp13
(lp14
(lp15
I2
aa(lp16
V1
p17
aa(lp18
Vbox_size.dat
p19
aaa(lp20
(lp21
I6
aa(lp22
g17
aa(lp23
Vhelix_tilt.dat
p24
aa(lp25
V0
p26
aa(lp27
VPROA
p28
aa(lp29
g17
aa(lp30
V46
p31
aaa(lp32
(lp33
I8
aa(lp34
g17
ag17
ag17
ag17
ag17
ag17
ag17
aa(lp35
Vdensity_all.dat
p36
aVdensity_lipid_head.dat
p37
aVdensity_lipid_tail.dat
p38
aVdensity_water.dat
p39
aVdensity_custom0.dat
p40
aVdensity_custom1.dat
p41
aVdensity_custom2.dat
p42
aa(lp43
VZ
p44
ag44
ag44
ag44
ag44
ag44
ag44
aa(lp45
V-77
p46
aV-77
p47
aV-77
p48
aV-77
p49
aV-77
p50
aV-77
p51
aV-77
p52
aa(lp53
V77
p54
aV77
p55
aV77
p56
aV77
p57
aV77
p58
aV77
p59
aV77
p60
aa(lp61
g17
ag17
ag17
ag17
ag17
ag17
ag17
aa(lp62
Vall
p63
aVsegid MEMB and ( name P or name N or (name C1* and not name C1) or name O1* )
p64
aVsegid MEMB and ( name C2* or name C3* ) and not ( name C21 or  name C31 )
p65
aVsegid TIP3 and name OH2
p66
aVall
p67
aVsegid PROA
p68
aVsegid MEMB
p69
aa(lp70
V36855
p71
aV36855
p72
aV36855
p73
aV36855
p74
aV36855
p75
aV36855
p76
aV36855
p77
aaasS'para_pkeys'
p78
(lp79
(lp80
I4265
aI4266
aI4267
aa(lp81
I4268
aI4269
aI4270
aI4271
aI4272
aI4273
aI4274
aa(lp82
I4275
aI4276
aI4277
aI4278
aI4279
aI4280
aI4281
aI4282
aI4283
aI4284
aI4285
aI4286
aI4287
aI4288
aI4289
aI4290
aI4291
aI4292
aI4293
aI4294
aI4295
aI4296
aI4297
aI4298
aI4299
aI4300
aI4301
aI4302
aI4303
aI4304
aI4305
aI4306
aI4307
aI4308
aI4309
aI4310
aI4311
aI4312
aI4313
aI4314
aI4315
aI4316
aI4317
aI4318
aI4319
aI4320
aI4321
aI4322
aI4323
aI4324
aI4325
aI4326
aI4327
aI4328
aI4329
aI4330
aI4331
aasS'session_home'
p83
S'/home2/jcjeong/project/stanalyzer0/stanalyzer/media/jcjeong/20130417154434003921YQNbiV'
p84
sS'num_frame'
p85
V20
p86
sS'trajectory'
p87
(lp88
Vstep6_1.dcd
p89
asS'paraInfo'
p90
(lp91
(lp92
VNumber of Parameters
p93
aVFrame interval
p94
aVOutput name
p95
aa(lp96
VNumber of Parameters
p97
aVFrame interval
p98
aVOutput name
p99
aVSegment ID
p100
aVSegment Name
p101
aVStart Residue
p102
aVTerminal Residue
p103
aa(lp104
VNumber of Parameters
p105
aVFrame interval
p106
aVOutput name
p107
aVAxis
p108
aVMinimum value in the given axis
p109
aVMaximum value in the given axis
p110
aVBin size
p111
aVQuery
p112
aVTotal number of atoms
p113
aasS'job_pkey'
p114
(I166
tp115
sS'path_output'
p116
S'/home2/jcjeong/project/stanalyzer0/stanalyzer/media/jcjeong/'
p117
sS'path_python'
p118
V/home/sunhwan/local/python/bin/python
p119
sS'job_title'
p120
Vanalyzing trajectory
p121
sS'pkey'
p122
V1
p123
sS'num_ps'
p124
V2.0
p125
sS'pdb_file'
p126
Vstep7_691.pdb
p127
sS'pbs_home'
p128
S'/home2/jcjeong/project/stanalyzer0/stanalyzer/media/jcjeong/20130417154434003921YQNbiV/pbs'
p129
sS'base_path'
p130
S'/home2/jcjeong/project/stanalyzer1/stanalyzer/trajectory/'
p131
sS'date'
p132
S'20130417154434003921'
p133
sS'pbs'
p134
V#!/bin/bash\u000a#PBS -l nodes=1:ppn=1\u000a#PBS -l mem=500mb\u000a#PBS -l walltime=72:00:00\u000a#PBS -l cput=72:00:00\u000a#PBS -q charmm_nmr\u000a
p135
sS'analyzer_home'
p136
S'/home2/jcjeong/project/stanalyzer0/stanalyzer/static/analyzers'
p137
sS'num_files'
p138
V1
p139
sS'ptitle'
p140
Vcalculating helix
p141
sS'structure_file'
p142
Vstep5_assembly.psf
p143
sS'dbName'
p144
S'/home2/jcjeong/project/stanalyzer0/stanalyzer/stanalyzer.db'
p145
s.