(dp0
S'pkey'
p1
V1
p2
sS'pbs_home'
p3
S'/home2/jcjeong/project/stanalyzer0/stanalyzer/media/jcjeong/20130117164814210533lVxMLp/pbs'
p4
sS'pbs'
p5
V#!/bin/csh\u000a#PBS -l nodes=1:ppn=1\u000a#PBS -l mem=500mb\u000a#PBS -l walltime=72:00:00\u000a#PBS -l cput=72:00:00\u000a#PBS -q default\u000a
p6
sS'job_pkey'
p7
(I20
tp8
sS'output_home'
p9
S'/home2/jcjeong/project/stanalyzer0/stanalyzer/media/jcjeong/20130117164814210533lVxMLp/'
p10
sS'analyzer_home'
p11
S'/home2/jcjeong/project/stanalyzer0/stanalyzer/static/analyzers'
p12
sS'paraInfo'
p13
(lp14
(lp15
VNumber of Parameters
p16
aasS'media_home'
p17
S'/home2/jcjeong/project/stanalyzer0/stanalyzer/media'
p18
sS'base_path'
p19
S'/home2/jcjeong/project/stanalyzer1/stanalyzer/trajectory/'
p20
sS'path_python'
p21
V/home/sunhwan/local/python/bin/python
p22
sS'Paras'
p23
(lp24
(lp25
V0
p26
aasS'para_pkeys'
p27
(lp28
(lp29
I51
aasS'session_home'
p30
S'/home2/jcjeong/project/stanalyzer0/stanalyzer/media/jcjeong/20130117164814210533lVxMLp'
p31
sS'ptitle'
p32
Vprj
p33
sS'structure_file'
p34
Vstep5_assembly.psf
p35
sS'trajectory'
p36
(lp37
Vstep7_1.dcd
p38
aVstep7_2.dcd
p39
aVstep7_3.dcd
p40
aVstep7_4.dcd
p41
aVstep7_5.dcd
p42
aVstep7_10.dcd
p43
aVstep7_20.dcd
p44
aVstep7_30.dcd
p45
aVstep7_40.dcd
p46
aVstep7_50.dcd
p47
aVstep7_100.dcd
p48
aVstep7_110.dcd
p49
aVstep7_633.dcd
p50
aVstep7_669.dcd
p51
aVstep7_670.dcd
p52
aVstep7_671.dcd
p53
aVstep7_672.dcd
p54
aVstep7_673.dcd
p55
aVstep7_674.dcd
p56
aVstep7_675.dcd
p57
aVstep7_676.dcd
p58
aVstep7_677.dcd
p59
aVstep7_678.dcd
p60
aVstep7_1000.dcd
p61
asS'date'
p62
S'20130117164814210533'
p63
sS'funcName'
p64
(lp65
Vbox
p66
asS'path_output'
p67
S'/home2/jcjeong/project/stanalyzer0/stanalyzer/media/jcjeong/'
p68
sS'dbName'
p69
S'/home2/jcjeong/project/stanalyzer0/stanalyzer/stanalyzer.db'
p70
sS'job_title'
p71
Vanalyzing trajectory
p72
s.