(dp0
S'output_home'
p1
S'/home2/jcjeong/project/stanalyzer0/stanalyzer/media/jcjeong/20130409154347572130dxt7hP/'
p2
sS'num_atoms'
p3
V36855
p4
sS'media_home'
p5
S'/home2/jcjeong/project/stanalyzer0/stanalyzer/media'
p6
sS'funcName'
p7
(lp8
sS'Paras'
p9
(lp10
(lp11
(lp12
I8
aa(lp13
V1
p14
ag14
ag14
ag14
aa(lp15
Vdensity_all.dat
p16
aVdensity_lipid_head.dat
p17
aVdensity_lipid_tail.dat
p18
aVdensity_water.dat
p19
aa(lp20
VZ
p21
ag21
ag21
ag21
aa(lp22
V-77
p23
aV-77
p24
aV-77
p25
aV-77
p26
aa(lp27
V77
p28
aV77
p29
aV77
p30
aV77
p31
aa(lp32
g14
ag14
ag14
ag14
aa(lp33
Vall
p34
aVsegid MEMB and ( name P or name N or (name C1* and not name C1) or name O1* )
p35
aVsegid MEMB and ( name C2* or name C3* ) and not ( name C21 or  name C31 )
p36
aVsegid TIP3 and name OH2
p37
aa(lp38
V36855
p39
aV36855
p40
aV36855
p41
aV36855
p42
aaasS'para_pkeys'
p43
(lp44
sS'session_home'
p45
S'/home2/jcjeong/project/stanalyzer0/stanalyzer/media/jcjeong/20130409154347572130dxt7hP'
p46
sS'num_frame'
p47
V20
p48
sS'trajectory'
p49
(lp50
Vstep6_1.dcd
p51
asS'paraInfo'
p52
(lp53
(lp54
VNumber of Parameters
p55
aVFrame interval
p56
aVOutput name
p57
aVAxis
p58
aVMinimum value in the given axis
p59
aVMaximum value in the given axis
p60
aVBin size
p61
aVQuery
p62
aVTotal number of atoms
p63
aasS'job_pkey'
p64
(I147
tp65
sS'path_output'
p66
S'/home2/jcjeong/project/stanalyzer0/stanalyzer/media/jcjeong/'
p67
sS'path_python'
p68
Vpython
p69
sS'job_title'
p70
Vanalyzing trajectory
p71
sS'pkey'
p72
V1
p73
sS'num_ps'
p74
V2.0
p75
sS'pdb_file'
p76
Vanalysis2.inp
p77
sS'pbs_home'
p78
S'/home2/jcjeong/project/stanalyzer0/stanalyzer/media/jcjeong/20130409154347572130dxt7hP/pbs'
p79
sS'base_path'
p80
S'/home2/jcjeong/project/stanalyzer1/stanalyzer/trajectory/'
p81
sS'date'
p82
S'20130409154347572130'
p83
sS'pbs'
p84
V#!/bin/bash\u000a#PBS -l nodes=1:ppn=1\u000a#PBS -l mem=500mb\u000a#PBS -l walltime=72:00:00\u000a#PBS -l cput=72:00:00\u000a#PBS -q charmm_nmr\u000a
p85
sS'analyzer_home'
p86
S'/home2/jcjeong/project/stanalyzer0/stanalyzer/static/analyzers'
p87
sS'num_files'
p88
V1
p89
sS'ptitle'
p90
Vcalculating helix
p91
sS'structure_file'
p92
Vanalysis2.inp
p93
sS'dbName'
p94
S'/home2/jcjeong/project/stanalyzer0/stanalyzer/stanalyzer.db'
p95
s.