(dp0
S'output_home'
p1
S'/home2/jcjeong/project/stanalyzer0/stanalyzer/media/jcjeong/201306031414594993654l7hwq/'
p2
sS'num_atoms'
p3
V731
p4
sS'media_home'
p5
S'/home2/jcjeong/project/stanalyzer0/stanalyzer/media'
p6
sS'funcName'
p7
(lp8
Vrmsd
p9
aVrmsf
p10
asS'Paras'
p11
(lp12
(lp13
(lp14
I4
aa(lp15
V1
p16
aa(lp17
Vrmsd_ouput.dat
p18
aa(lp19
Vname CA
p20
aa(lp21
Vname CA
p22
aaa(lp23
(lp24
I5
aa(lp25
g16
aa(lp26
Vrmsf_ouput.dat
p27
aa(lp28
Vname CA
p29
aa(lp30
Vname CA
p31
aa(lp32
VFalse
p33
aaasS'para_pkeys'
p34
(lp35
(lp36
I6916
aI6917
aI6918
aI6919
aI6920
aa(lp37
I6921
aI6922
aI6923
aI6924
aI6925
aI6926
aasS'session_home'
p38
S'/home2/jcjeong/project/stanalyzer0/stanalyzer/media/jcjeong/201306031414594993654l7hwq'
p39
sS'num_frame'
p40
V500
p41
sS'trajectory'
p42
(lp43
Vstep6.3_prod.dcd
p44
asS'paraInfo'
p45
(lp46
(lp47
VNumber of Parameters
p48
aVFrame interval
p49
aVOutput name
p50
aVAlign Selection
p51
aVRMSD Selection
p52
aa(lp53
VNumber of Parameters
p54
aVFrame interval
p55
aVOutput name
p56
aVAlign Selection
p57
aVRMSD Selection
p58
aVCalculate average on residue
p59
aasS'job_pkey'
p60
(I398
tp61
sS'path_output'
p62
S'/home2/jcjeong/project/stanalyzer0/stanalyzer/media/jcjeong/'
p63
sS'path_python'
p64
V/home/sunhwan/local/python/bin/python
p65
sS'job_title'
p66
Vanalyzing trajectory
p67
sS'pkey'
p68
V1
p69
sS'num_ps'
p70
V100.0
p71
sS'pdb_file'
p72
Vstep3_pbcsetup.pdb
p73
sS'pbs_home'
p74
S'/home2/jcjeong/project/stanalyzer0/stanalyzer/media/jcjeong/201306031414594993654l7hwq/pbs'
p75
sS'base_path'
p76
S'/home2/qiyifei/work/paceCG/read_martini/solution/charmm-gui/namd/'
p77
sS'date'
p78
S'20130603141459499365'
p79
sS'pbs'
p80
V#!/bin/bash\u000a#PBS -l nodes=1:ppn=1\u000a#PBS -l mem=500mb\u000a#PBS -l walltime=72:00:00\u000a#PBS -l cput=72:00:00\u000a#PBS -q charmm_nmr\u000a
p81
sS'analyzer_home'
p82
S'/home2/jcjeong/project/stanalyzer0/stanalyzer/static/analyzers'
p83
sS'num_files'
p84
V1
p85
sS'ptitle'
p86
Vcalculating helix
p87
sS'structure_file'
p88
Vstep3_pbcsetup.psf
p89
sS'dbName'
p90
S'/home2/jcjeong/project/stanalyzer0/stanalyzer/stanalyzer.db'
p91
s.