(dp0
S'output_home'
p1
S'/home2/jcjeong/project/stanalyzer0/stanalyzer/media/jcjeong/20130716132038235595HOsQFD/'
p2
sS'num_atoms'
p3
V18019
p4
sS'media_home'
p5
S'/home2/jcjeong/project/stanalyzer0/stanalyzer/media'
p6
sS'funcName'
p7
(lp8
Vlipid_per_area_voro
p9
asS'Paras'
p10
(lp11
(lp12
(lp13
I7
aa(lp14
V1
p15
aa(lp16
Vvoronoi_lipid_per_area1401_1403.dat
p17
aa(lp18
V18019
p19
aa(lp20
Vsegid MEMB and ((resname CHL1 and name O3) or (resname DOPC and (name C2 or name C21 or name C31)) or (resname POPC and (name C2 or name C21 or name C31)) or (resname POPI and (name C2 or name C21 or name C31)) or (resname POPI13 and (name C2 or name C21 or name C31)))
p21
aa(lp22
V47.8143157959
p23
aa(lp24
V47.8143157959
p25
aa(lp26
V/home2/jcjeong/project/qhull/qhull-2012.1/bin
p27
aaasS'para_pkeys'
p28
(lp29
(lp30
I1376
aI1377
aI1378
aI1379
aI1380
aI1381
aI1382
aI1383
aasS'session_home'
p31
S'/home2/jcjeong/project/stanalyzer0/stanalyzer/media/jcjeong/20130716132038235595HOsQFD'
p32
sS'num_frame'
p33
V40
p34
sS'trajectory'
p35
(lp36
Vstep7_1400.dcd
p37
aVstep7_1401.dcd
p38
aVstep7_1402.dcd
p39
aVstep7_1403.dcd
p40
aVstep7_1404.dcd
p41
aVstep7_1405.dcd
p42
asS'paraInfo'
p43
(lp44
(lp45
VNumber of Parameters
p46
aVFrame interval
p47
aVOutput name
p48
aVTotal number of atoms
p49
aVlipid query
p50
aVmax X coordinate
p51
aVmax Y coordinate
p52
aVqhull path
p53
aasS'job_pkey'
p54
(I170
tp55
sS'path_output'
p56
S'/home2/jcjeong/project/stanalyzer0/stanalyzer/media/jcjeong/'
p57
sS'path_python'
p58
V/export/apps/bin/python2.7
p59
sS'job_title'
p60
Vanalyzing trajectory
p61
sS'pkey'
p62
V1
p63
sS'num_ps'
p64
V5.0
p65
sS'pdb_file'
p66
Vstep5_assembly.pdb
p67
sS'pbs_home'
p68
S'/home2/jcjeong/project/stanalyzer0/stanalyzer/media/jcjeong/20130716132038235595HOsQFD/pbs'
p69
sS'base_path'
p70
S'/imscratch/emiliawu/yeast_ecoli/yeast_pc_popi13_1/'
p71
sS'date'
p72
S'20130716132038235595'
p73
sS'pbs'
p74
V#!/bin/bash\u000a#PBS -l nodes=1:ppn=1\u000a#PBS -l mem=500mb\u000a#PBS -l walltime=72:00:00\u000a#PBS -l cput=72:00:00\u000a#PBS -q default\u000a\u000aexport LD_LIBRARY_PATH=/export/apps/compilers/gcc48/lib64\u000a\u000a
p75
sS'analyzer_home'
p76
S'/home2/jcjeong/project/stanalyzer0/stanalyzer/static/analyzers'
p77
sS'num_files'
p78
V6
p79
sS'ptitle'
p80
VST-analyzer test1
p81
sS'structure_file'
p82
Vstep5_assembly.xplor_ext.psf
p83
sS'dbName'
p84
S'/home2/jcjeong/project/stanalyzer0/stanalyzer/stanalyzer.db'
p85
s.