(dp0
S'output_home'
p1
S'/home2/jcjeong/project/stanalyzer0/stanalyzer/media/jcjeong/201304091423392162022lJH24/'
p2
sS'num_atoms'
p3
V36855
p4
sS'media_home'
p5
S'/home2/jcjeong/project/stanalyzer0/stanalyzer/media'
p6
sS'funcName'
p7
(lp8
Vdensity
p9
asS'Paras'
p10
(lp11
(lp12
(lp13
I8
aa(lp14
V
p15
aa(lp16
g15
aa(lp17
g15
aa(lp18
g15
aa(lp19
g15
aa(lp20
g15
aa(lp21
g15
aa(lp22
g15
aaasS'para_pkeys'
p23
(lp24
(lp25
I3503
aI3504
aI3505
aI3506
aI3507
aI3508
aI3509
aI3510
aI3511
aasS'session_home'
p26
S'/home2/jcjeong/project/stanalyzer0/stanalyzer/media/jcjeong/201304091423392162022lJH24'
p27
sS'num_frame'
p28
V20
p29
sS'trajectory'
p30
(lp31
Vstep7_5.dcd
p32
asS'paraInfo'
p33
(lp34
(lp35
VNumber of Parameters
p36
aVFrame interval
p37
aVOutput name
p38
aVAxis
p39
aVMinimum value in the given axis
p40
aVMaximum value in the given axis
p41
aVBin size
p42
aVQuery
p43
aVTotal number of atoms
p44
aasS'job_pkey'
p45
(I127
tp46
sS'path_output'
p47
S'/home2/jcjeong/project/stanalyzer0/stanalyzer/media/jcjeong/'
p48
sS'path_python'
p49
V/home/sunhwan/local/python/bin/python
p50
sS'job_title'
p51
Vanalyzing trajectory
p52
sS'pkey'
p53
V1
p54
sS'num_ps'
p55
V2.0
p56
sS'pdb_file'
p57
Vstep7_691.pdb
p58
sS'pbs_home'
p59
S'/home2/jcjeong/project/stanalyzer0/stanalyzer/media/jcjeong/201304091423392162022lJH24/pbs'
p60
sS'base_path'
p61
S'/home2/jcjeong/project/stanalyzer1/stanalyzer/trajectory/'
p62
sS'date'
p63
S'20130409142339216202'
p64
sS'pbs'
p65
V#!/bin/bash\u000a#PBS -l nodes=1:ppn=1\u000a#PBS -l mem=500mb\u000a#PBS -l walltime=72:00:00\u000a#PBS -l cput=72:00:00\u000a#PBS -q charmm_nmr\u000a
p66
sS'analyzer_home'
p67
S'/home2/jcjeong/project/stanalyzer0/stanalyzer/static/analyzers'
p68
sS'num_files'
p69
V1
p70
sS'ptitle'
p71
Vcalculating helix
p72
sS'structure_file'
p73
Vstep5_assembly.psf
p74
sS'dbName'
p75
S'/home2/jcjeong/project/stanalyzer0/stanalyzer/stanalyzer.db'
p76
s.