(dp0
S'output_home'
p1
S'/home2/jcjeong/project/stanalyzer0/stanalyzer/media/jcjeong/20130703112740641572GANqv4/'
p2
sS'num_atoms'
p3
V28935
p4
sS'media_home'
p5
S'/home2/jcjeong/project/stanalyzer0/stanalyzer/media'
p6
sS'funcName'
p7
(lp8
Vlipid_per_area_dela
p9
asS'Paras'
p10
(lp11
(lp12
(lp13
I7
aa(lp14
V1
p15
aa(lp16
Vdelaunay_lipid_per_area.dat
p17
aa(lp18
V28935
p19
aa(lp20
Vsegid MEMB and resname DPPE and (name C2 or name C21 or name C31)
p21
aa(lp22
V42
p23
aa(lp24
V42
p25
aa(lp26
V/home2/jcjeong/project/qhull/qhull-2012.1/bin
p27
aaasS'para_pkeys'
p28
(lp29
(lp30
I355
aI356
aI357
aI358
aI359
aI360
aI361
aI362
aasS'session_home'
p31
S'/home2/jcjeong/project/stanalyzer0/stanalyzer/media/jcjeong/20130703112740641572GANqv4'
p32
sS'num_frame'
p33
V40
p34
sS'trajectory'
p35
(lp36
Vstep7_0.dcd
p37
asS'paraInfo'
p38
(lp39
(lp40
VNumber of Parameters
p41
aVFrame interval
p42
aVOutput name
p43
aVTotal number of atoms
p44
aVlipid query
p45
aVmax X coordinate
p46
aVmax Y coordinate
p47
aVqhull path
p48
aasS'job_pkey'
p49
(I50
tp50
sS'path_output'
p51
S'/home2/jcjeong/project/stanalyzer0/stanalyzer/media/jcjeong/'
p52
sS'path_python'
p53
V/home/sunhwan/local/python/bin/python
p54
sS'job_title'
p55
Vanalyzing trajectory
p56
sS'pkey'
p57
V1
p58
sS'num_ps'
p59
V5.0
p60
sS'pdb_file'
p61
Vstep5_assembly.pdb
p62
sS'pbs_home'
p63
S'/home2/jcjeong/project/stanalyzer0/stanalyzer/media/jcjeong/20130703112740641572GANqv4/pbs'
p64
sS'base_path'
p65
S'/home2/jcjeong/project/charmm/emilia/'
p66
sS'date'
p67
S'20130703112740641572'
p68
sS'pbs'
p69
V#!/bin/csh\u000a#PBS -l nodes=1:ppn=1\u000a#PBS -l mem=500mb\u000a#PBS -l walltime=72:00:00\u000a#PBS -l cput=72:00:00\u000a#PBS -q default\u000a
p70
sS'analyzer_home'
p71
S'/home2/jcjeong/project/stanalyzer0/stanalyzer/static/analyzers'
p72
sS'num_files'
p73
V1
p74
sS'ptitle'
p75
VST-analyzer test1
p76
sS'structure_file'
p77
Vstep5_assembly.xplor_ext.psf
p78
sS'dbName'
p79
S'/home2/jcjeong/project/stanalyzer0/stanalyzer/stanalyzer.db'
p80
s.