(dp0
S'output_home'
p1
S'/home2/jcjeong/project/stanalyzer0/stanalyzer/media/jcjeong/201306031027286829704rBAIG/'
p2
sS'num_atoms'
p3
V28935
p4
sS'media_home'
p5
S'/home2/jcjeong/project/stanalyzer0/stanalyzer/media'
p6
sS'funcName'
p7
(lp8
Vthickness_custom
p9
asS'Paras'
p10
(lp11
(lp12
(lp13
I4
aa(lp14
V1
p15
aa(lp16
Vthickness_custom_0.dat
p17
aa(lp18
V16170
p19
aa(lp20
VMEMB
p21
aa(lp22
VDXPE
p23
aa(lp24
Vname C22
p25
aaasS'para_pkeys'
p26
(lp27
(lp28
I6890
aI6891
aI6892
aI6893
aI6894
aI6895
aI6896
aasS'session_home'
p29
S'/home2/jcjeong/project/stanalyzer0/stanalyzer/media/jcjeong/201306031027286829704rBAIG'
p30
sS'num_frame'
p31
V40
p32
sS'trajectory'
p33
(lp34
Vstep7_10.dcd
p35
asS'paraInfo'
p36
(lp37
(lp38
VNumber of Parameters
p39
aVFrame interval
p40
aVOutput name
p41
aVTotal number of atoms
p42
aVsegment ID
p43
aVresidue ID
p44
aVthickness query
p45
aasS'job_pkey'
p46
(I395
tp47
sS'path_output'
p48
S'/home2/jcjeong/project/stanalyzer0/stanalyzer/media/jcjeong/'
p49
sS'path_python'
p50
V/home/sunhwan/local/python/bin/python
p51
sS'job_title'
p52
Vanalyzing trajectory
p53
sS'pkey'
p54
V1
p55
sS'num_ps'
p56
V5.0
p57
sS'pdb_file'
p58
Vstep5_assembly.pdb
p59
sS'pbs_home'
p60
S'/home2/jcjeong/project/stanalyzer0/stanalyzer/media/jcjeong/201306031027286829704rBAIG/pbs'
p61
sS'base_path'
p62
S'/home2/jcjeong/project/charmm/emilia/'
p63
sS'date'
p64
S'20130603102728682970'
p65
sS'pbs'
p66
V#!/bin/bash\u000a#PBS -l nodes=1:ppn=1\u000a#PBS -l mem=500mb\u000a#PBS -l walltime=72:00:00\u000a#PBS -l cput=72:00:00\u000a#PBS -q charmm_nmr\u000a
p67
sS'analyzer_home'
p68
S'/home2/jcjeong/project/stanalyzer0/stanalyzer/static/analyzers'
p69
sS'num_files'
p70
V1
p71
sS'ptitle'
p72
Vcalculating helix
p73
sS'structure_file'
p74
Vstep5_assembly.xplor_ext.psf
p75
sS'dbName'
p76
S'/home2/jcjeong/project/stanalyzer0/stanalyzer/stanalyzer.db'
p77
s.