(dp0
S'output_home'
p1
S'/home2/jcjeong/project/stanalyzer0/stanalyzer/media/jcjeong/20130502140541772868ff7rKF/'
p2
sS'num_atoms'
p3
V28935
p4
sS'media_home'
p5
S'/home2/jcjeong/project/stanalyzer0/stanalyzer/media'
p6
sS'funcName'
p7
(lp8
Vordpara_dopc
p9
asS'Paras'
p10
(lp11
(lp12
(lp13
I4
aa(lp14
V1
p15
aa(lp16
Vordpara_depe_pbs_all.dat
p17
aa(lp18
VZ
p19
aa(lp20
V28935
p21
aaasS'para_pkeys'
p22
(lp23
(lp24
I5507
aI5508
aI5509
aI5510
aI5511
aasS'session_home'
p25
S'/home2/jcjeong/project/stanalyzer0/stanalyzer/media/jcjeong/20130502140541772868ff7rKF'
p26
sS'num_frame'
p27
V40
p28
sS'trajectory'
p29
(lp30
Vstep7_0.dcd
p31
aVstep7_1.dcd
p32
aVstep7_2.dcd
p33
aVstep7_3.dcd
p34
aVstep7_4.dcd
p35
aVstep7_5.dcd
p36
aVstep7_6.dcd
p37
aVstep7_7.dcd
p38
aVstep7_8.dcd
p39
aVstep7_9.dcd
p40
aVstep7_10.dcd
p41
aVstep7_11.dcd
p42
aVstep7_12.dcd
p43
aVstep7_13.dcd
p44
aVstep7_14.dcd
p45
aVstep7_15.dcd
p46
aVstep7_16.dcd
p47
aVstep7_17.dcd
p48
aVstep7_18.dcd
p49
aVstep7_19.dcd
p50
aVstep7_20.dcd
p51
aVstep7_21.dcd
p52
aVstep7_22.dcd
p53
aVstep7_23.dcd
p54
aVstep7_24.dcd
p55
aVstep7_25.dcd
p56
aVstep7_26.dcd
p57
aVstep7_27.dcd
p58
aVstep7_28.dcd
p59
aVstep7_29.dcd
p60
aVstep7_30.dcd
p61
aVstep7_31.dcd
p62
aVstep7_32.dcd
p63
aVstep7_33.dcd
p64
aVstep7_34.dcd
p65
aVstep7_35.dcd
p66
aVstep7_36.dcd
p67
aVstep7_37.dcd
p68
aVstep7_38.dcd
p69
aVstep7_39.dcd
p70
aVstep7_40.dcd
p71
aVstep7_41.dcd
p72
aVstep7_42.dcd
p73
aVstep7_43.dcd
p74
aVstep7_44.dcd
p75
aVstep7_45.dcd
p76
aVstep7_46.dcd
p77
aVstep7_47.dcd
p78
aVstep7_48.dcd
p79
aVstep7_49.dcd
p80
aVstep7_50.dcd
p81
aVstep7_51.dcd
p82
aVstep7_52.dcd
p83
aVstep7_53.dcd
p84
aVstep7_54.dcd
p85
aVstep7_55.dcd
p86
aVstep7_56.dcd
p87
aVstep7_57.dcd
p88
aVstep7_58.dcd
p89
aVstep7_59.dcd
p90
aVstep7_60.dcd
p91
aVstep7_61.dcd
p92
aVstep7_62.dcd
p93
aVstep7_63.dcd
p94
aVstep7_64.dcd
p95
aVstep7_65.dcd
p96
aVstep7_66.dcd
p97
aVstep7_67.dcd
p98
aVstep7_68.dcd
p99
aVstep7_69.dcd
p100
aVstep7_70.dcd
p101
aVstep7_71.dcd
p102
aVstep7_72.dcd
p103
aVstep7_73.dcd
p104
aVstep7_74.dcd
p105
aVstep7_75.dcd
p106
aVstep7_76.dcd
p107
aVstep7_77.dcd
p108
aVstep7_78.dcd
p109
aVstep7_79.dcd
p110
aVstep7_80.dcd
p111
aVstep7_81.dcd
p112
aVstep7_82.dcd
p113
aVstep7_83.dcd
p114
aVstep7_84.dcd
p115
aVstep7_85.dcd
p116
aVstep7_86.dcd
p117
aVstep7_87.dcd
p118
aVstep7_88.dcd
p119
aVstep7_89.dcd
p120
aVstep7_90.dcd
p121
aVstep7_91.dcd
p122
aVstep7_92.dcd
p123
aVstep7_93.dcd
p124
aVstep7_94.dcd
p125
aVstep7_95.dcd
p126
aVstep7_96.dcd
p127
aVstep7_97.dcd
p128
aVstep7_98.dcd
p129
aVstep7_99.dcd
p130
aVstep7_100.dcd
p131
aVstep7_101.dcd
p132
aVstep7_102.dcd
p133
aVstep7_103.dcd
p134
aVstep7_104.dcd
p135
aVstep7_105.dcd
p136
aVstep7_106.dcd
p137
aVstep7_107.dcd
p138
aVstep7_108.dcd
p139
aVstep7_109.dcd
p140
aVstep7_110.dcd
p141
aVstep7_111.dcd
p142
aVstep7_112.dcd
p143
aVstep7_113.dcd
p144
aVstep7_114.dcd
p145
aVstep7_115.dcd
p146
aVstep7_116.dcd
p147
aVstep7_117.dcd
p148
aVstep7_118.dcd
p149
aVstep7_119.dcd
p150
aVstep7_120.dcd
p151
aVstep7_121.dcd
p152
aVstep7_122.dcd
p153
aVstep7_123.dcd
p154
aVstep7_124.dcd
p155
aVstep7_125.dcd
p156
aVstep7_126.dcd
p157
aVstep7_127.dcd
p158
aVstep7_128.dcd
p159
aVstep7_129.dcd
p160
aVstep7_130.dcd
p161
aVstep7_131.dcd
p162
aVstep7_132.dcd
p163
aVstep7_133.dcd
p164
aVstep7_134.dcd
p165
aVstep7_135.dcd
p166
aVstep7_136.dcd
p167
aVstep7_137.dcd
p168
aVstep7_138.dcd
p169
aVstep7_139.dcd
p170
aVstep7_140.dcd
p171
aVstep7_141.dcd
p172
aVstep7_142.dcd
p173
aVstep7_143.dcd
p174
aVstep7_144.dcd
p175
aVstep7_145.dcd
p176
aVstep7_146.dcd
p177
aVstep7_147.dcd
p178
aVstep7_148.dcd
p179
aVstep7_149.dcd
p180
aVstep7_150.dcd
p181
aVstep7_151.dcd
p182
aVstep7_152.dcd
p183
aVstep7_153.dcd
p184
aVstep7_154.dcd
p185
aVstep7_155.dcd
p186
aVstep7_156.dcd
p187
aVstep7_157.dcd
p188
aVstep7_158.dcd
p189
aVstep7_159.dcd
p190
aVstep7_160.dcd
p191
aVstep7_161.dcd
p192
aVstep7_162.dcd
p193
aVstep7_163.dcd
p194
aVstep7_164.dcd
p195
aVstep7_165.dcd
p196
aVstep7_166.dcd
p197
aVstep7_167.dcd
p198
aVstep7_168.dcd
p199
aVstep7_169.dcd
p200
aVstep7_170.dcd
p201
aVstep7_171.dcd
p202
aVstep7_172.dcd
p203
aVstep7_173.dcd
p204
aVstep7_174.dcd
p205
aVstep7_175.dcd
p206
aVstep7_176.dcd
p207
aVstep7_177.dcd
p208
aVstep7_178.dcd
p209
aVstep7_179.dcd
p210
aVstep7_180.dcd
p211
aVstep7_181.dcd
p212
aVstep7_182.dcd
p213
aVstep7_183.dcd
p214
aVstep7_184.dcd
p215
aVstep7_185.dcd
p216
aVstep7_186.dcd
p217
aVstep7_187.dcd
p218
aVstep7_188.dcd
p219
aVstep7_189.dcd
p220
aVstep7_190.dcd
p221
aVstep7_191.dcd
p222
aVstep7_192.dcd
p223
aVstep7_193.dcd
p224
aVstep7_194.dcd
p225
aVstep7_195.dcd
p226
aVstep7_196.dcd
p227
aVstep7_197.dcd
p228
aVstep7_198.dcd
p229
aVstep7_199.dcd
p230
aVstep7_200.dcd
p231
aVstep7_201.dcd
p232
aVstep7_202.dcd
p233
aVstep7_203.dcd
p234
aVstep7_204.dcd
p235
aVstep7_205.dcd
p236
aVstep7_206.dcd
p237
aVstep7_207.dcd
p238
aVstep7_208.dcd
p239
aVstep7_209.dcd
p240
aVstep7_210.dcd
p241
aVstep7_211.dcd
p242
aVstep7_212.dcd
p243
aVstep7_213.dcd
p244
aVstep7_214.dcd
p245
aVstep7_215.dcd
p246
aVstep7_216.dcd
p247
aVstep7_217.dcd
p248
aVstep7_218.dcd
p249
aVstep7_219.dcd
p250
aVstep7_220.dcd
p251
aVstep7_221.dcd
p252
aVstep7_222.dcd
p253
aVstep7_223.dcd
p254
aVstep7_224.dcd
p255
aVstep7_225.dcd
p256
aVstep7_226.dcd
p257
aVstep7_227.dcd
p258
aVstep7_228.dcd
p259
aVstep7_229.dcd
p260
aVstep7_230.dcd
p261
aVstep7_231.dcd
p262
aVstep7_232.dcd
p263
aVstep7_233.dcd
p264
aVstep7_234.dcd
p265
aVstep7_235.dcd
p266
aVstep7_236.dcd
p267
aVstep7_237.dcd
p268
aVstep7_238.dcd
p269
aVstep7_239.dcd
p270
aVstep7_240.dcd
p271
aVstep7_241.dcd
p272
aVstep7_242.dcd
p273
aVstep7_243.dcd
p274
aVstep7_244.dcd
p275
aVstep7_245.dcd
p276
aVstep7_246.dcd
p277
aVstep7_247.dcd
p278
aVstep7_248.dcd
p279
aVstep7_249.dcd
p280
aVstep7_250.dcd
p281
aVstep7_251.dcd
p282
aVstep7_252.dcd
p283
aVstep7_253.dcd
p284
aVstep7_254.dcd
p285
aVstep7_255.dcd
p286
aVstep7_256.dcd
p287
aVstep7_257.dcd
p288
aVstep7_258.dcd
p289
aVstep7_259.dcd
p290
aVstep7_260.dcd
p291
aVstep7_261.dcd
p292
aVstep7_262.dcd
p293
aVstep7_263.dcd
p294
aVstep7_264.dcd
p295
aVstep7_265.dcd
p296
aVstep7_266.dcd
p297
aVstep7_267.dcd
p298
aVstep7_268.dcd
p299
aVstep7_269.dcd
p300
aVstep7_270.dcd
p301
aVstep7_271.dcd
p302
aVstep7_272.dcd
p303
aVstep7_273.dcd
p304
aVstep7_274.dcd
p305
aVstep7_275.dcd
p306
aVstep7_276.dcd
p307
aVstep7_277.dcd
p308
aVstep7_278.dcd
p309
aVstep7_279.dcd
p310
aVstep7_280.dcd
p311
aVstep7_281.dcd
p312
aVstep7_282.dcd
p313
aVstep7_283.dcd
p314
aVstep7_284.dcd
p315
aVstep7_285.dcd
p316
aVstep7_286.dcd
p317
aVstep7_287.dcd
p318
aVstep7_288.dcd
p319
aVstep7_289.dcd
p320
aVstep7_290.dcd
p321
aVstep7_291.dcd
p322
aVstep7_292.dcd
p323
aVstep7_293.dcd
p324
aVstep7_294.dcd
p325
aVstep7_295.dcd
p326
aVstep7_296.dcd
p327
aVstep7_297.dcd
p328
aVstep7_298.dcd
p329
aVstep7_299.dcd
p330
aVstep7_300.dcd
p331
aVstep7_301.dcd
p332
aVstep7_302.dcd
p333
aVstep7_303.dcd
p334
aVstep7_304.dcd
p335
aVstep7_305.dcd
p336
aVstep7_306.dcd
p337
aVstep7_307.dcd
p338
aVstep7_308.dcd
p339
aVstep7_309.dcd
p340
aVstep7_310.dcd
p341
aVstep7_311.dcd
p342
aVstep7_312.dcd
p343
aVstep7_313.dcd
p344
aVstep7_314.dcd
p345
aVstep7_315.dcd
p346
aVstep7_316.dcd
p347
aVstep7_317.dcd
p348
aVstep7_318.dcd
p349
aVstep7_319.dcd
p350
aVstep7_320.dcd
p351
aVstep7_321.dcd
p352
aVstep7_322.dcd
p353
aVstep7_323.dcd
p354
aVstep7_324.dcd
p355
aVstep7_325.dcd
p356
aVstep7_326.dcd
p357
aVstep7_327.dcd
p358
aVstep7_328.dcd
p359
aVstep7_329.dcd
p360
aVstep7_330.dcd
p361
aVstep7_331.dcd
p362
aVstep7_332.dcd
p363
aVstep7_333.dcd
p364
aVstep7_334.dcd
p365
aVstep7_335.dcd
p366
aVstep7_336.dcd
p367
aVstep7_337.dcd
p368
aVstep7_338.dcd
p369
aVstep7_339.dcd
p370
aVstep7_340.dcd
p371
aVstep7_341.dcd
p372
aVstep7_342.dcd
p373
aVstep7_343.dcd
p374
aVstep7_344.dcd
p375
aVstep7_345.dcd
p376
aVstep7_346.dcd
p377
aVstep7_347.dcd
p378
aVstep7_348.dcd
p379
aVstep7_349.dcd
p380
aVstep7_350.dcd
p381
aVstep7_351.dcd
p382
aVstep7_352.dcd
p383
aVstep7_353.dcd
p384
aVstep7_354.dcd
p385
aVstep7_355.dcd
p386
aVstep7_356.dcd
p387
aVstep7_357.dcd
p388
aVstep7_358.dcd
p389
aVstep7_359.dcd
p390
aVstep7_360.dcd
p391
aVstep7_361.dcd
p392
aVstep7_362.dcd
p393
aVstep7_363.dcd
p394
aVstep7_364.dcd
p395
aVstep7_365.dcd
p396
aVstep7_366.dcd
p397
aVstep7_367.dcd
p398
aVstep7_368.dcd
p399
aVstep7_369.dcd
p400
aVstep7_370.dcd
p401
aVstep7_371.dcd
p402
aVstep7_372.dcd
p403
aVstep7_373.dcd
p404
aVstep7_374.dcd
p405
aVstep7_375.dcd
p406
aVstep7_376.dcd
p407
aVstep7_377.dcd
p408
aVstep7_378.dcd
p409
aVstep7_379.dcd
p410
aVstep7_380.dcd
p411
aVstep7_381.dcd
p412
aVstep7_382.dcd
p413
aVstep7_383.dcd
p414
aVstep7_384.dcd
p415
aVstep7_385.dcd
p416
aVstep7_386.dcd
p417
aVstep7_387.dcd
p418
aVstep7_388.dcd
p419
aVstep7_389.dcd
p420
aVstep7_390.dcd
p421
aVstep7_391.dcd
p422
aVstep7_392.dcd
p423
aVstep7_393.dcd
p424
aVstep7_394.dcd
p425
aVstep7_395.dcd
p426
aVstep7_396.dcd
p427
aVstep7_397.dcd
p428
aVstep7_398.dcd
p429
aVstep7_399.dcd
p430
aVstep7_400.dcd
p431
aVstep7_401.dcd
p432
aVstep7_402.dcd
p433
aVstep7_403.dcd
p434
aVstep7_404.dcd
p435
aVstep7_405.dcd
p436
aVstep7_406.dcd
p437
aVstep7_407.dcd
p438
aVstep7_408.dcd
p439
aVstep7_409.dcd
p440
aVstep7_410.dcd
p441
aVstep7_411.dcd
p442
aVstep7_412.dcd
p443
aVstep7_413.dcd
p444
aVstep7_414.dcd
p445
aVstep7_415.dcd
p446
aVstep7_416.dcd
p447
aVstep7_417.dcd
p448
aVstep7_418.dcd
p449
aVstep7_419.dcd
p450
aVstep7_420.dcd
p451
aVstep7_421.dcd
p452
aVstep7_422.dcd
p453
aVstep7_423.dcd
p454
aVstep7_424.dcd
p455
aVstep7_425.dcd
p456
aVstep7_426.dcd
p457
aVstep7_427.dcd
p458
aVstep7_428.dcd
p459
aVstep7_429.dcd
p460
aVstep7_430.dcd
p461
aVstep7_431.dcd
p462
aVstep7_432.dcd
p463
aVstep7_433.dcd
p464
aVstep7_434.dcd
p465
aVstep7_435.dcd
p466
aVstep7_436.dcd
p467
aVstep7_437.dcd
p468
aVstep7_438.dcd
p469
aVstep7_439.dcd
p470
aVstep7_440.dcd
p471
aVstep7_441.dcd
p472
aVstep7_442.dcd
p473
aVstep7_443.dcd
p474
aVstep7_444.dcd
p475
aVstep7_445.dcd
p476
aVstep7_446.dcd
p477
aVstep7_447.dcd
p478
aVstep7_448.dcd
p479
aVstep7_449.dcd
p480
aVstep7_450.dcd
p481
aVstep7_451.dcd
p482
aVstep7_452.dcd
p483
aVstep7_453.dcd
p484
aVstep7_454.dcd
p485
aVstep7_455.dcd
p486
aVstep7_456.dcd
p487
aVstep7_457.dcd
p488
aVstep7_458.dcd
p489
aVstep7_459.dcd
p490
aVstep7_460.dcd
p491
aVstep7_461.dcd
p492
aVstep7_462.dcd
p493
aVstep7_463.dcd
p494
aVstep7_464.dcd
p495
aVstep7_465.dcd
p496
aVstep7_466.dcd
p497
aVstep7_467.dcd
p498
aVstep7_468.dcd
p499
aVstep7_469.dcd
p500
aVstep7_470.dcd
p501
aVstep7_471.dcd
p502
aVstep7_472.dcd
p503
aVstep7_473.dcd
p504
aVstep7_474.dcd
p505
aVstep7_475.dcd
p506
aVstep7_476.dcd
p507
aVstep7_477.dcd
p508
aVstep7_478.dcd
p509
aVstep7_479.dcd
p510
aVstep7_480.dcd
p511
aVstep7_481.dcd
p512
aVstep7_482.dcd
p513
aVstep7_483.dcd
p514
aVstep7_484.dcd
p515
aVstep7_485.dcd
p516
aVstep7_486.dcd
p517
aVstep7_487.dcd
p518
aVstep7_488.dcd
p519
aVstep7_489.dcd
p520
aVstep7_490.dcd
p521
aVstep7_491.dcd
p522
aVstep7_492.dcd
p523
aVstep7_493.dcd
p524
aVstep7_494.dcd
p525
aVstep7_495.dcd
p526
aVstep7_496.dcd
p527
aVstep7_497.dcd
p528
aVstep7_498.dcd
p529
aVstep7_499.dcd
p530
aVstep7_500.dcd
p531
aVstep7_501.dcd
p532
aVstep7_502.dcd
p533
aVstep7_503.dcd
p534
aVstep7_504.dcd
p535
aVstep7_505.dcd
p536
aVstep7_506.dcd
p537
aVstep7_507.dcd
p538
aVstep7_508.dcd
p539
aVstep7_509.dcd
p540
aVstep7_510.dcd
p541
aVstep7_511.dcd
p542
aVstep7_512.dcd
p543
aVstep7_513.dcd
p544
aVstep7_514.dcd
p545
aVstep7_515.dcd
p546
aVstep7_516.dcd
p547
aVstep7_517.dcd
p548
aVstep7_518.dcd
p549
aVstep7_519.dcd
p550
aVstep7_520.dcd
p551
aVstep7_521.dcd
p552
aVstep7_522.dcd
p553
aVstep7_523.dcd
p554
aVstep7_524.dcd
p555
aVstep7_525.dcd
p556
aVstep7_526.dcd
p557
aVstep7_527.dcd
p558
aVstep7_528.dcd
p559
aVstep7_529.dcd
p560
aVstep7_530.dcd
p561
aVstep7_531.dcd
p562
aVstep7_532.dcd
p563
aVstep7_533.dcd
p564
aVstep7_534.dcd
p565
aVstep7_535.dcd
p566
aVstep7_536.dcd
p567
aVstep7_537.dcd
p568
aVstep7_538.dcd
p569
aVstep7_539.dcd
p570
aVstep7_540.dcd
p571
aVstep7_541.dcd
p572
aVstep7_542.dcd
p573
aVstep7_543.dcd
p574
aVstep7_544.dcd
p575
aVstep7_545.dcd
p576
aVstep7_546.dcd
p577
aVstep7_547.dcd
p578
aVstep7_548.dcd
p579
aVstep7_549.dcd
p580
aVstep7_550.dcd
p581
aVstep7_551.dcd
p582
aVstep7_552.dcd
p583
aVstep7_553.dcd
p584
aVstep7_554.dcd
p585
aVstep7_555.dcd
p586
aVstep7_556.dcd
p587
aVstep7_557.dcd
p588
aVstep7_558.dcd
p589
aVstep7_559.dcd
p590
aVstep7_560.dcd
p591
aVstep7_561.dcd
p592
aVstep7_561.dcd.BAK
p593
aVstep7_562.dcd
p594
aVstep7_563.dcd
p595
aVstep7_564.dcd
p596
aVstep7_565.dcd
p597
aVstep7_566.dcd
p598
aVstep7_567.dcd
p599
aVstep7_568.dcd
p600
aVstep7_569.dcd
p601
aVstep7_570.dcd
p602
aVstep7_571.dcd
p603
aVstep7_572.dcd
p604
aVstep7_573.dcd
p605
aVstep7_574.dcd
p606
aVstep7_575.dcd
p607
aVstep7_576.dcd
p608
aVstep7_577.dcd
p609
aVstep7_578.dcd
p610
aVstep7_579.dcd
p611
aVstep7_580.dcd
p612
aVstep7_581.dcd
p613
aVstep7_582.dcd
p614
aVstep7_583.dcd
p615
aVstep7_584.dcd
p616
aVstep7_585.dcd
p617
aVstep7_586.dcd
p618
aVstep7_587.dcd
p619
aVstep7_588.dcd
p620
aVstep7_589.dcd
p621
aVstep7_590.dcd
p622
aVstep7_591.dcd
p623
aVstep7_592.dcd
p624
aVstep7_593.dcd
p625
aVstep7_594.dcd
p626
aVstep7_595.dcd
p627
aVstep7_596.dcd
p628
aVstep7_597.dcd
p629
aVstep7_598.dcd
p630
aVstep7_599.dcd
p631
aVstep7_600.dcd
p632
aVstep7_601.dcd
p633
aVstep7_602.dcd
p634
aVstep7_603.dcd
p635
aVstep7_604.dcd
p636
aVstep7_605.dcd
p637
aVstep7_606.dcd
p638
aVstep7_607.dcd
p639
aVstep7_608.dcd
p640
aVstep7_609.dcd
p641
aVstep7_610.dcd
p642
aVstep7_611.dcd
p643
aVstep7_612.dcd
p644
aVstep7_613.dcd
p645
aVstep7_614.dcd
p646
aVstep7_614.dcd.BAK
p647
aVstep7_615.dcd
p648
aVstep7_616.dcd
p649
aVstep7_617.dcd
p650
aVstep7_618.dcd
p651
aVstep7_619.dcd
p652
aVstep7_620.dcd
p653
aVstep7_621.dcd
p654
aVstep7_622.dcd
p655
aVstep7_623.dcd
p656
aVstep7_624.dcd
p657
aVstep7_625.dcd
p658
aVstep7_625.dcd.BAK
p659
aVstep7_626.dcd
p660
aVstep7_627.dcd
p661
aVstep7_628.dcd
p662
aVstep7_629.dcd
p663
aVstep7_630.dcd
p664
aVstep7_631.dcd
p665
aVstep7_632.dcd
p666
aVstep7_633.dcd
p667
aVstep7_634.dcd
p668
aVstep7_635.dcd
p669
aVstep7_636.dcd
p670
aVstep7_637.dcd
p671
aVstep7_638.dcd
p672
aVstep7_639.dcd
p673
aVstep7_640.dcd
p674
aVstep7_641.dcd
p675
aVstep7_642.dcd
p676
aVstep7_643.dcd
p677
aVstep7_644.dcd
p678
aVstep7_645.dcd
p679
aVstep7_646.dcd
p680
aVstep7_647.dcd
p681
aVstep7_648.dcd
p682
aVstep7_649.dcd
p683
aVstep7_650.dcd
p684
aVstep7_651.dcd
p685
aVstep7_652.dcd
p686
aVstep7_653.dcd
p687
aVstep7_654.dcd
p688
aVstep7_654.dcd.BAK
p689
aVstep7_655.dcd
p690
aVstep7_656.dcd
p691
aVstep7_657.dcd
p692
aVstep7_658.dcd
p693
aVstep7_658.dcd.BAK
p694
aVstep7_659.dcd
p695
aVstep7_660.dcd
p696
aVstep7_661.dcd
p697
aVstep7_662.dcd
p698
aVstep7_663.dcd
p699
aVstep7_664.dcd
p700
aVstep7_665.dcd
p701
aVstep7_666.dcd
p702
aVstep7_667.dcd
p703
aVstep7_668.dcd
p704
aVstep7_669.dcd
p705
aVstep7_669.dcd.BAK
p706
aVstep7_670.dcd
p707
aVstep7_671.dcd
p708
aVstep7_672.dcd
p709
aVstep7_673.dcd
p710
aVstep7_674.dcd
p711
aVstep7_675.dcd
p712
aVstep7_676.dcd
p713
aVstep7_677.dcd
p714
aVstep7_678.dcd
p715
aVstep7_679.dcd
p716
aVstep7_680.dcd
p717
aVstep7_681.dcd
p718
aVstep7_682.dcd
p719
aVstep7_683.dcd
p720
aVstep7_684.dcd
p721
aVstep7_685.dcd
p722
aVstep7_686.dcd
p723
aVstep7_687.dcd
p724
aVstep7_688.dcd
p725
aVstep7_689.dcd
p726
aVstep7_690.dcd
p727
aVstep7_691.dcd
p728
aVstep7_692.dcd
p729
aVstep7_693.dcd
p730
aVstep7_694.dcd
p731
aVstep7_695.dcd
p732
aVstep7_696.dcd
p733
aVstep7_697.dcd
p734
aVstep7_698.dcd
p735
aVstep7_699.dcd
p736
aVstep7_700.dcd
p737
aVstep7_701.dcd
p738
aVstep7_702.dcd
p739
aVstep7_703.dcd
p740
aVstep7_704.dcd
p741
aVstep7_705.dcd
p742
aVstep7_706.dcd
p743
aVstep7_707.dcd
p744
aVstep7_708.dcd
p745
aVstep7_709.dcd
p746
aVstep7_710.dcd
p747
aVstep7_711.dcd
p748
aVstep7_712.dcd
p749
aVstep7_713.dcd
p750
aVstep7_714.dcd
p751
aVstep7_715.dcd
p752
aVstep7_716.dcd
p753
aVstep7_717.dcd
p754
aVstep7_717.dcd.BAK
p755
aVstep7_718.dcd
p756
aVstep7_719.dcd
p757
aVstep7_720.dcd
p758
aVstep7_721.dcd
p759
aVstep7_722.dcd
p760
aVstep7_723.dcd
p761
aVstep7_724.dcd
p762
aVstep7_725.dcd
p763
aVstep7_726.dcd
p764
aVstep7_727.dcd
p765
aVstep7_728.dcd
p766
aVstep7_729.dcd
p767
aVstep7_730.dcd
p768
aVstep7_731.dcd
p769
aVstep7_732.dcd
p770
aVstep7_733.dcd
p771
aVstep7_734.dcd
p772
aVstep7_735.dcd
p773
aVstep7_735.dcd.BAK
p774
aVstep7_736.dcd
p775
aVstep7_737.dcd
p776
aVstep7_738.dcd
p777
aVstep7_739.dcd
p778
aVstep7_740.dcd
p779
aVstep7_741.dcd
p780
aVstep7_742.dcd
p781
aVstep7_743.dcd
p782
aVstep7_744.dcd
p783
aVstep7_745.dcd
p784
aVstep7_746.dcd
p785
aVstep7_747.dcd
p786
aVstep7_748.dcd
p787
aVstep7_749.dcd
p788
aVstep7_750.dcd
p789
asS'paraInfo'
p790
(lp791
(lp792
VNumber of Parameters
p793
aVFrame interval
p794
aVOutput name
p795
aVAxis
p796
aVTotal number of atoms
p797
aasS'job_pkey'
p798
(I279
tp799
sS'path_output'
p800
S'/home2/jcjeong/project/stanalyzer0/stanalyzer/media/jcjeong/'
p801
sS'path_python'
p802
V/home/sunhwan/local/python/bin/python
p803
sS'job_title'
p804
Vanalyzing trajectory
p805
sS'pkey'
p806
V1
p807
sS'num_ps'
p808
V5.0
p809
sS'pdb_file'
p810
Vstep5_assembly.pdb
p811
sS'pbs_home'
p812
S'/home2/jcjeong/project/stanalyzer0/stanalyzer/media/jcjeong/20130502140541772868ff7rKF/pbs'
p813
sS'base_path'
p814
S'/home2/jcjeong/project/charmm/emilia/'
p815
sS'date'
p816
S'20130502140541772868'
p817
sS'pbs'
p818
V#!/bin/bash\u000a#PBS -l nodes=1:ppn=1\u000a#PBS -l mem=500mb\u000a#PBS -l walltime=72:00:00\u000a#PBS -l cput=72:00:00\u000a#PBS -q charmm_nmr\u000a
p819
sS'analyzer_home'
p820
S'/home2/jcjeong/project/stanalyzer0/stanalyzer/static/analyzers'
p821
sS'num_files'
p822
V759
p823
sS'ptitle'
p824
Vcalculating helix
p825
sS'structure_file'
p826
Vstep5_assembly.xplor_ext.psf
p827
sS'dbName'
p828
S'/home2/jcjeong/project/stanalyzer0/stanalyzer/stanalyzer.db'
p829
s.