(dp0
S'output_home'
p1
S'/home2/jcjeong/project/stanalyzer0/stanalyzer/media/jcjeong/201304171558383770728lg1T1/'
p2
sS'num_atoms'
p3
V32727
p4
sS'media_home'
p5
S'/home2/jcjeong/project/stanalyzer0/stanalyzer/media'
p6
sS'funcName'
p7
(lp8
Vbox
p9
aVhelix_tilt
p10
aVdensity
p11
asS'Paras'
p12
(lp13
(lp14
(lp15
I2
aa(lp16
V1
p17
aa(lp18
Vbox_size.dat
p19
aaa(lp20
(lp21
I6
aa(lp22
g17
aa(lp23
Vhelix_tilt.dat
p24
aa(lp25
g17
aa(lp26
VMEMB
p27
aa(lp28
g17
aa(lp29
V98
p30
aaa(lp31
(lp32
I8
aa(lp33
g17
ag17
ag17
ag17
ag17
ag17
ag17
aa(lp34
Vdensity_all.dat
p35
aVdensity_lipid_head.dat
p36
aVdensity_lipid_tail.dat
p37
aVdensity_water.dat
p38
aVdensity_custom0_all.dat
p39
aVdensity_custom1_PROA.dat
p40
aVdensity_custom2_MEMB.dat
p41
aa(lp42
VZ
p43
ag43
ag43
ag43
ag43
ag43
ag43
aa(lp44
V-61
p45
aV-61
p46
aV-61
p47
aV-61
p48
aV-61
p49
aV-77
p50
aV-77
p51
aa(lp52
V61
p53
aV61
p54
aV61
p55
aV61
p56
aV61
p57
aV77
p58
aV77
p59
aa(lp60
g17
ag17
ag17
ag17
ag17
ag17
ag17
aa(lp61
Vall
p62
aVsegid MEMB and ( name P or name N or (name C1* and not name C1) or name O1* )
p63
aVsegid MEMB and ( name C2* or name C3* ) and not ( name C21 or  name C31 )
p64
aVsegid TIP3 and name OH2
p65
aVall
p66
aVsegid PROA
p67
aVsegid MEMB
p68
aa(lp69
V32727
p70
aV32727
p71
aV32727
p72
aV32727
p73
aV32727
p74
aV36855
p75
aV36855
p76
aaasS'para_pkeys'
p77
(lp78
(lp79
I4449
aI4450
aI4451
aa(lp80
I4452
aI4453
aI4454
aI4455
aI4456
aI4457
aI4458
aa(lp81
I4459
aI4460
aI4461
aI4462
aI4463
aI4464
aI4465
aI4466
aI4467
aI4468
aI4469
aI4470
aI4471
aI4472
aI4473
aI4474
aI4475
aI4476
aI4477
aI4478
aI4479
aI4480
aI4481
aI4482
aI4483
aI4484
aI4485
aI4486
aI4487
aI4488
aI4489
aI4490
aI4491
aI4492
aI4493
aI4494
aI4495
aI4496
aI4497
aI4498
aI4499
aI4500
aI4501
aI4502
aI4503
aI4504
aI4505
aI4506
aI4507
aI4508
aI4509
aI4510
aI4511
aI4512
aI4513
aI4514
aI4515
aasS'session_home'
p82
S'/home2/jcjeong/project/stanalyzer0/stanalyzer/media/jcjeong/201304171558383770728lg1T1'
p83
sS'num_frame'
p84
V50
p85
sS'trajectory'
p86
(lp87
Vstep7_0.dcd
p88
aVstep7_1.dcd
p89
aVstep7_2.dcd
p90
aVstep7_3.dcd
p91
aVstep7_4.dcd
p92
aVstep7_5.dcd
p93
aVstep7_6.dcd
p94
aVstep7_7.dcd
p95
aVstep7_8.dcd
p96
aVstep7_9.dcd
p97
aVstep7_10.dcd
p98
aVstep7_11.dcd
p99
aVstep7_12.dcd
p100
aVstep7_13.dcd
p101
aVstep7_14.dcd
p102
aVstep7_15.dcd
p103
aVstep7_16.dcd
p104
aVstep7_17.dcd
p105
aVstep7_18.dcd
p106
aVstep7_19.dcd
p107
aVstep7_20.dcd
p108
aVstep7_21.dcd
p109
aVstep7_22.dcd
p110
aVstep7_23.dcd
p111
aVstep7_24.dcd
p112
aVstep7_25.dcd
p113
aVstep7_26.dcd
p114
aVstep7_27.dcd
p115
aVstep7_28.dcd
p116
aVstep7_29.dcd
p117
aVstep7_30.dcd
p118
aVstep7_31.dcd
p119
aVstep7_32.dcd
p120
aVstep7_33.dcd
p121
aVstep7_34.dcd
p122
aVstep7_35.dcd
p123
aVstep7_36.dcd
p124
aVstep7_37.dcd
p125
aVstep7_38.dcd
p126
aVstep7_39.dcd
p127
aVstep7_40.dcd
p128
aVstep7_41.dcd
p129
aVstep7_42.dcd
p130
aVstep7_43.dcd
p131
aVstep7_44.dcd
p132
aVstep7_45.dcd
p133
aVstep7_46.dcd
p134
aVstep7_47.dcd
p135
aVstep7_48.dcd
p136
aVstep7_49.dcd
p137
aVstep7_50.dcd
p138
aVstep7_51.dcd
p139
aVstep7_52.dcd
p140
aVstep7_53.dcd
p141
aVstep7_54.dcd
p142
aVstep7_55.dcd
p143
aVstep7_56.dcd
p144
aVstep7_57.dcd
p145
aVstep7_58.dcd
p146
aVstep7_59.dcd
p147
aVstep7_60.dcd
p148
aVstep7_61.dcd
p149
aVstep7_62.dcd
p150
aVstep7_63.dcd
p151
aVstep7_64.dcd
p152
aVstep7_65.dcd
p153
aVstep7_66.dcd
p154
aVstep7_67.dcd
p155
aVstep7_68.dcd
p156
aVstep7_69.dcd
p157
aVstep7_70.dcd
p158
aVstep7_71.dcd
p159
aVstep7_72.dcd
p160
aVstep7_73.dcd
p161
aVstep7_74.dcd
p162
aVstep7_75.dcd
p163
aVstep7_76.dcd
p164
aVstep7_77.dcd
p165
aVstep7_78.dcd
p166
aVstep7_79.dcd
p167
aVstep7_80.dcd
p168
aVstep7_81.dcd
p169
aVstep7_82.dcd
p170
aVstep7_83.dcd
p171
aVstep7_84.dcd
p172
aVstep7_85.dcd
p173
aVstep7_86.dcd
p174
aVstep7_87.dcd
p175
aVstep7_88.dcd
p176
aVstep7_89.dcd
p177
aVstep7_90.dcd
p178
aVstep7_91.dcd
p179
aVstep7_92.dcd
p180
aVstep7_93.dcd
p181
aVstep7_94.dcd
p182
aVstep7_95.dcd
p183
aVstep7_96.dcd
p184
aVstep7_97.dcd
p185
aVstep7_98.dcd
p186
aVstep7_99.dcd
p187
aVstep7_100.dcd
p188
aVstep7_101.dcd
p189
aVstep7_102.dcd
p190
aVstep7_103.dcd
p191
aVstep7_104.dcd
p192
aVstep7_105.dcd
p193
aVstep7_106.dcd
p194
aVstep7_107.dcd
p195
aVstep7_108.dcd
p196
aVstep7_109.dcd
p197
aVstep7_110.dcd
p198
aVstep7_111.dcd
p199
aVstep7_112.dcd
p200
aVstep7_113.dcd
p201
aVstep7_114.dcd
p202
aVstep7_115.dcd
p203
aVstep7_116.dcd
p204
aVstep7_117.dcd
p205
aVstep7_118.dcd
p206
aVstep7_119.dcd
p207
aVstep7_120.dcd
p208
aVstep7_121.dcd
p209
aVstep7_122.dcd
p210
aVstep7_123.dcd
p211
aVstep7_124.dcd
p212
aVstep7_125.dcd
p213
aVstep7_126.dcd
p214
aVstep7_127.dcd
p215
aVstep7_128.dcd
p216
aVstep7_129.dcd
p217
aVstep7_130.dcd
p218
aVstep7_131.dcd
p219
aVstep7_132.dcd
p220
aVstep7_133.dcd
p221
aVstep7_134.dcd
p222
aVstep7_135.dcd
p223
aVstep7_136.dcd
p224
aVstep7_137.dcd
p225
aVstep7_138.dcd
p226
aVstep7_139.dcd
p227
aVstep7_140.dcd
p228
aVstep7_141.dcd
p229
aVstep7_142.dcd
p230
aVstep7_143.dcd
p231
aVstep7_144.dcd
p232
aVstep7_145.dcd
p233
aVstep7_146.dcd
p234
aVstep7_147.dcd
p235
aVstep7_148.dcd
p236
aVstep7_149.dcd
p237
aVstep7_150.dcd
p238
aVstep7_151.dcd
p239
aVstep7_152.dcd
p240
aVstep7_153.dcd
p241
aVstep7_154.dcd
p242
aVstep7_155.dcd
p243
aVstep7_156.dcd
p244
aVstep7_157.dcd
p245
aVstep7_158.dcd
p246
aVstep7_159.dcd
p247
aVstep7_160.dcd
p248
aVstep7_161.dcd
p249
aVstep7_162.dcd
p250
aVstep7_163.dcd
p251
aVstep7_164.dcd
p252
aVstep7_165.dcd
p253
aVstep7_166.dcd
p254
aVstep7_167.dcd
p255
aVstep7_168.dcd
p256
aVstep7_169.dcd
p257
aVstep7_170.dcd
p258
aVstep7_171.dcd
p259
aVstep7_172.dcd
p260
aVstep7_173.dcd
p261
aVstep7_174.dcd
p262
aVstep7_175.dcd
p263
aVstep7_176.dcd
p264
aVstep7_177.dcd
p265
aVstep7_178.dcd
p266
aVstep7_179.dcd
p267
aVstep7_180.dcd
p268
aVstep7_181.dcd
p269
aVstep7_182.dcd
p270
aVstep7_183.dcd
p271
aVstep7_184.dcd
p272
aVstep7_185.dcd
p273
aVstep7_186.dcd
p274
aVstep7_187.dcd
p275
aVstep7_188.dcd
p276
aVstep7_189.dcd
p277
aVstep7_190.dcd
p278
aVstep7_191.dcd
p279
aVstep7_192.dcd
p280
aVstep7_193.dcd
p281
aVstep7_194.dcd
p282
aVstep7_195.dcd
p283
aVstep7_196.dcd
p284
aVstep7_197.dcd
p285
aVstep7_198.dcd
p286
aVstep7_199.dcd
p287
asS'paraInfo'
p288
(lp289
(lp290
VNumber of Parameters
p291
aVFrame interval
p292
aVOutput name
p293
aa(lp294
VNumber of Parameters
p295
aVFrame interval
p296
aVOutput name
p297
aVSegment ID
p298
aVSegment Name
p299
aVStart Residue
p300
aVTerminal Residue
p301
aa(lp302
VNumber of Parameters
p303
aVFrame interval
p304
aVOutput name
p305
aVAxis
p306
aVMinimum value in the given axis
p307
aVMaximum value in the given axis
p308
aVBin size
p309
aVQuery
p310
aVTotal number of atoms
p311
aasS'job_pkey'
p312
(I173
tp313
sS'path_output'
p314
S'/home2/jcjeong/project/stanalyzer0/stanalyzer/media/jcjeong/'
p315
sS'path_python'
p316
V/home/sunhwan/local/python/bin/python
p317
sS'job_title'
p318
Vanalyzing trajectory
p319
sS'pkey'
p320
V1
p321
sS'num_ps'
p322
V5.0
p323
sS'pdb_file'
p324
Vstep5_assembly.pdb
p325
sS'pbs_home'
p326
S'/home2/jcjeong/project/stanalyzer0/stanalyzer/media/jcjeong/201304171558383770728lg1T1/pbs'
p327
sS'base_path'
p328
S'/home2/jcjeong/project/charmm/dol_dopc_1/'
p329
sS'date'
p330
S'20130417155838377072'
p331
sS'pbs'
p332
V#!/bin/bash\u000a#PBS -l nodes=1:ppn=1\u000a#PBS -l mem=500mb\u000a#PBS -l walltime=72:00:00\u000a#PBS -l cput=72:00:00\u000a#PBS -q charmm_nmr\u000a
p333
sS'analyzer_home'
p334
S'/home2/jcjeong/project/stanalyzer0/stanalyzer/static/analyzers'
p335
sS'num_files'
p336
V200
p337
sS'ptitle'
p338
Vcalculating helix
p339
sS'structure_file'
p340
Vstep5_assembly.xplor_ext.psf
p341
sS'dbName'
p342
S'/home2/jcjeong/project/stanalyzer0/stanalyzer/stanalyzer.db'
p343
s.