(dp0
S'pkey'
p1
V1
p2
sS'pbs_home'
p3
S'/home2/jcjeong/project/stanalyzer0/stanalyzer/media/jcjeong/20130117163916604774Wllp3Y/pbs'
p4
sS'pbs'
p5
V#!/bin/csh\u000a#PBS -l nodes=1:ppn=1\u000a#PBS -l mem=500mb\u000a#PBS -l walltime=72:00:00\u000a#PBS -l cput=72:00:00\u000a#PBS -q default\u000a
p6
sS'job_pkey'
p7
(I16
tp8
sS'output_home'
p9
S'/home2/jcjeong/project/stanalyzer0/stanalyzer/media/jcjeong/20130117163916604774Wllp3Y/'
p10
sS'analyzer_home'
p11
S'/home2/jcjeong/project/stanalyzer0/stanalyzer/static/analyzers'
p12
sS'paraInfo'
p13
(lp14
sS'media_home'
p15
S'/home2/jcjeong/project/stanalyzer0/stanalyzer/media'
p16
sS'base_path'
p17
S'/home2/jcjeong/project/stanalyzer1/stanalyzer/trajectory/'
p18
sS'path_python'
p19
V/home/sunhwan/local/python/bin/python
p20
sS'Paras'
p21
(lp22
sS'para_pkeys'
p23
(lp24
sS'session_home'
p25
S'/home2/jcjeong/project/stanalyzer0/stanalyzer/media/jcjeong/20130117163916604774Wllp3Y'
p26
sS'ptitle'
p27
Vprj
p28
sS'structure_file'
p29
Vstep5_assembly.psf
p30
sS'trajectory'
p31
(lp32
Vstep7_1.dcd
p33
aVstep7_10.dcd
p34
aVstep7_100.dcd
p35
aVstep7_1000.dcd
p36
aVstep7_110.dcd
p37
aVstep7_2.dcd
p38
aVstep7_20.dcd
p39
aVstep7_3.dcd
p40
aVstep7_30.dcd
p41
aVstep7_4.dcd
p42
aVstep7_40.dcd
p43
aVstep7_5.dcd
p44
aVstep7_50.dcd
p45
aVstep7_633.dcd
p46
aVstep7_669.dcd
p47
aVstep7_670.dcd
p48
aVstep7_671.dcd
p49
aVstep7_672.dcd
p50
aVstep7_673.dcd
p51
aVstep7_674.dcd
p52
aVstep7_675.dcd
p53
aVstep7_676.dcd
p54
aVstep7_677.dcd
p55
aVstep7_678.dcd
p56
asS'date'
p57
S'20130117163916604774'
p58
sS'funcName'
p59
(lp60
sS'path_output'
p61
S'/home2/jcjeong/project/stanalyzer0/stanalyzer/media/jcjeong/'
p62
sS'dbName'
p63
S'/home2/jcjeong/project/stanalyzer0/stanalyzer/stanalyzer.db'
p64
sS'job_title'
p65
Vanalyzing trajectory
p66
s.