(dp0
S'output_home'
p1
S'/home2/jcjeong/project/stanalyzer0/stanalyzer/media/jcjeong/20130409150738959002TM9Dae/'
p2
sS'num_atoms'
p3
V36855
p4
sS'media_home'
p5
S'/home2/jcjeong/project/stanalyzer0/stanalyzer/media'
p6
sS'funcName'
p7
(lp8
Vdensity
p9
aVdensity
p10
aVdensity
p11
aVdensity
p12
asS'Paras'
p13
(lp14
(lp15
(lp16
I8
aa(lp17
V1
p18
aa(lp19
Vdensity_all.dat
p20
aa(lp21
VZ
p22
aa(lp23
V-77
p24
aa(lp25
V77
p26
aa(lp27
g18
aa(lp28
Vall
p29
aa(lp30
V36855
p31
aaa(lp32
(lp33
I8
aa(lp34
g18
aa(lp35
Vdensity_lipid_head.dat
p36
aa(lp37
g22
aa(lp38
V-77
p39
aa(lp40
V77
p41
aa(lp42
g18
aa(lp43
Vsegid MEMB and ( name P or name N or (name C1* and not name C1) or name O1* )
p44
aa(lp45
V36855
p46
aaa(lp47
(lp48
I8
aa(lp49
g18
aa(lp50
Vdensity_lipid_tail.dat
p51
aa(lp52
g22
aa(lp53
V-77
p54
aa(lp55
V77
p56
aa(lp57
g18
aa(lp58
Vsegid MEMB and ( name C2* or name C3* ) and not ( name C21 or  name C31 )
p59
aa(lp60
V36855
p61
aaa(lp62
(lp63
I8
aa(lp64
g18
aa(lp65
Vdensity_water.dat
p66
aa(lp67
g22
aa(lp68
V-77
p69
aa(lp70
V77
p71
aa(lp72
g18
aa(lp73
Vsegid TIP3 and name OH2
p74
aa(lp75
V36855
p76
aaasS'para_pkeys'
p77
(lp78
(lp79
I3674
aI3675
aI3676
aI3677
aI3678
aI3679
aI3680
aI3681
aI3682
aa(lp80
I3674
aI3675
aI3676
aI3677
aI3678
aI3679
aI3680
aI3681
aI3682
aI3683
aI3684
aI3685
aI3686
aI3687
aI3688
aI3689
aI3690
aI3691
aa(lp81
I3674
aI3675
aI3676
aI3677
aI3678
aI3679
aI3680
aI3681
aI3682
aI3683
aI3684
aI3685
aI3686
aI3687
aI3688
aI3689
aI3690
aI3691
aI3692
aI3693
aI3694
aI3695
aI3696
aI3697
aI3698
aI3699
aI3700
aa(lp82
I3674
aI3675
aI3676
aI3677
aI3678
aI3679
aI3680
aI3681
aI3682
aI3683
aI3684
aI3685
aI3686
aI3687
aI3688
aI3689
aI3690
aI3691
aI3692
aI3693
aI3694
aI3695
aI3696
aI3697
aI3698
aI3699
aI3700
aI3701
aI3702
aI3703
aI3704
aI3705
aI3706
aI3707
aI3708
aI3709
aasS'session_home'
p83
S'/home2/jcjeong/project/stanalyzer0/stanalyzer/media/jcjeong/20130409150738959002TM9Dae'
p84
sS'num_frame'
p85
V20
p86
sS'trajectory'
p87
(lp88
Vstep6_1.dcd
p89
asS'paraInfo'
p90
(lp91
(lp92
VNumber of Parameters
p93
aVFrame interval
p94
aVOutput name
p95
aVAxis
p96
aVMinimum value in the given axis
p97
aVMaximum value in the given axis
p98
aVBin size
p99
aVQuery
p100
aVTotal number of atoms
p101
aa(lp102
VNumber of Parameters
p103
aVFrame interval
p104
aVOutput name
p105
aVAxis
p106
aVMinimum value in the given axis
p107
aVMaximum value in the given axis
p108
aVBin size
p109
aVQuery
p110
aVTotal number of atoms
p111
aa(lp112
VNumber of Parameters
p113
aVFrame interval
p114
aVOutput name
p115
aVAxis
p116
aVMinimum value in the given axis
p117
aVMaximum value in the given axis
p118
aVBin size
p119
aVQuery
p120
aVTotal number of atoms
p121
aa(lp122
VNumber of Parameters
p123
aVFrame interval
p124
aVOutput name
p125
aVAxis
p126
aVMinimum value in the given axis
p127
aVMaximum value in the given axis
p128
aVBin size
p129
aVQuery
p130
aVTotal number of atoms
p131
aasS'job_pkey'
p132
(I143
tp133
sS'path_output'
p134
S'/home2/jcjeong/project/stanalyzer0/stanalyzer/media/jcjeong/'
p135
sS'path_python'
p136
V/home/sunhwan/local/python/bin/python
p137
sS'job_title'
p138
Vanalyzing trajectory
p139
sS'pkey'
p140
V1
p141
sS'num_ps'
p142
V2.0
p143
sS'pdb_file'
p144
Vstep7_691.pdb
p145
sS'pbs_home'
p146
S'/home2/jcjeong/project/stanalyzer0/stanalyzer/media/jcjeong/20130409150738959002TM9Dae/pbs'
p147
sS'base_path'
p148
S'/home2/jcjeong/project/stanalyzer1/stanalyzer/trajectory/'
p149
sS'date'
p150
S'20130409150738959002'
p151
sS'pbs'
p152
V#!/bin/bash\u000a#PBS -l nodes=1:ppn=1\u000a#PBS -l mem=500mb\u000a#PBS -l walltime=72:00:00\u000a#PBS -l cput=72:00:00\u000a#PBS -q charmm_nmr\u000a
p153
sS'analyzer_home'
p154
S'/home2/jcjeong/project/stanalyzer0/stanalyzer/static/analyzers'
p155
sS'num_files'
p156
V1
p157
sS'ptitle'
p158
Vcalculating helix
p159
sS'structure_file'
p160
Vstep5_assembly.psf
p161
sS'dbName'
p162
S'/home2/jcjeong/project/stanalyzer0/stanalyzer/stanalyzer.db'
p163
s.