(dp0
S'output_home'
p1
S'/home2/jcjeong/project/stanalyzer0/stanalyzer/media/jcjeong/20131011163251880279MOXuRZ/'
p2
sS'num_atoms'
p3
V36855
p4
sS'media_home'
p5
S'/home2/jcjeong/project/stanalyzer0/stanalyzer/media'
p6
sS'funcName'
p7
(lp8
Vbox
p9
asS'Paras'
p10
(lp11
(lp12
(lp13
I2
aa(lp14
V1
p15
aa(lp16
Vbox_size.dat
p17
aaasS'para_pkeys'
p18
(lp19
(lp20
I2892
aI2893
aI2894
aasS'session_home'
p21
S'/home2/jcjeong/project/stanalyzer0/stanalyzer/media/jcjeong/20131011163251880279MOXuRZ'
p22
sS'num_frame'
p23
V20
p24
sS'trajectory'
p25
(lp26
Vmysystem_00.dcd
p27
asS'paraInfo'
p28
(lp29
(lp30
VNumber of Parameters
p31
aVFrame interval
p32
aVOutput name
p33
aasS'job_pkey'
p34
(I320
tp35
sS'path_output'
p36
S'/home2/jcjeong/project/stanalyzer0/stanalyzer/media/jcjeong/'
p37
sS'path_python'
p38
V/export/apps/bin/python2.7
p39
sS'job_title'
p40
Vanalyzing trajectory
p41
sS'pkey'
p42
V2
p43
sS'num_ps'
p44
V2.0
p45
sS'pdb_file'
p46
Vmysystem.pdb
p47
sS'pbs_home'
p48
S'/home2/jcjeong/project/stanalyzer0/stanalyzer/media/jcjeong/20131011163251880279MOXuRZ/pbs'
p49
sS'base_path'
p50
S'/home2/jcjeong/project/stanalyzer0/stanalyzer/trajectory/protein/'
p51
sS'date'
p52
S'20131011163251880279'
p53
sS'pbs'
p54
V#!/bin/bash\u000a#PBS -l nodes=1:ppn=1\u000a#PBS -l mem=500mb\u000a#PBS -l walltime=72:00:00\u000a#PBS -l pcput=72:00:00\u000a#PBS -q default\u000a
p55
sS'analyzer_home'
p56
S'/home2/jcjeong/project/stanalyzer0/stanalyzer/static/analyzers'
p57
sS'num_files'
p58
V1
p59
sS'ptitle'
p60
VAlpha helix
p61
sS'structure_file'
p62
Vmysystem.psf
p63
sS'dbName'
p64
S'/home2/jcjeong/project/stanalyzer0/stanalyzer/stanalyzer.db'
p65
s.