(dp0
S'output_home'
p1
S'/home2/jcjeong/project/stanalyzer0/stanalyzer/media/jcjeong/20130731164649839920Cf0uoi/'
p2
sS'num_atoms'
p3
V36855
p4
sS'media_home'
p5
S'/home2/jcjeong/project/stanalyzer0/stanalyzer/media'
p6
sS'funcName'
p7
(lp8
Vrmsd
p9
asS'Paras'
p10
(lp11
(lp12
(lp13
I4
aa(lp14
V1
p15
aa(lp16
Vrmsd_ouput.dat
p17
aa(lp18
Vsegid PROA and name CA
p19
aa(lp20
Vsegid PROA and name CA
p21
aaasS'para_pkeys'
p22
(lp23
(lp24
I1961
aI1962
aI1963
aI1964
aI1965
aasS'session_home'
p25
S'/home2/jcjeong/project/stanalyzer0/stanalyzer/media/jcjeong/20130731164649839920Cf0uoi'
p26
sS'num_frame'
p27
V20
p28
sS'trajectory'
p29
(lp30
Vmysystem_00.dcd
p31
asS'paraInfo'
p32
(lp33
(lp34
VNumber of Parameters
p35
aVFrame interval
p36
aVOutput name
p37
aVAlign Selection
p38
aVRMSD Selection
p39
aasS'job_pkey'
p40
(I227
tp41
sS'path_output'
p42
S'/home2/jcjeong/project/stanalyzer0/stanalyzer/media/jcjeong/'
p43
sS'path_python'
p44
V/export/apps/bin/python2.7
p45
sS'job_title'
p46
Vanalyzing trajectory
p47
sS'pkey'
p48
V2
p49
sS'num_ps'
p50
V2.0
p51
sS'pdb_file'
p52
Vmysystem.pdb
p53
sS'pbs_home'
p54
S'/home2/jcjeong/project/stanalyzer0/stanalyzer/media/jcjeong/20130731164649839920Cf0uoi/pbs'
p55
sS'base_path'
p56
S'/home2/jcjeong/project/stanalyzer0/stanalyzer/trajectory/protein/'
p57
sS'date'
p58
S'20130731164649839920'
p59
sS'pbs'
p60
V#!/bin/bash\u000a#PBS -l nodes=1:ppn=1\u000a#PBS -l mem=500mb\u000a#PBS -l walltime=72:00:00\u000a#PBS -l cput=72:00:00\u000a#PBS -q default\u000a\u000aexport LD_LIBRARY_PATH=/export/apps/compilers/gcc48/lib64\u000a\u000a
p61
sS'analyzer_home'
p62
S'/home2/jcjeong/project/stanalyzer0/stanalyzer/static/analyzers'
p63
sS'num_files'
p64
V1
p65
sS'ptitle'
p66
VMy system: alpha helix
p67
sS'structure_file'
p68
Vmysystem.psf
p69
sS'dbName'
p70
S'/home2/jcjeong/project/stanalyzer0/stanalyzer/stanalyzer.db'
p71
s.