(dp0
S'pkey'
p1
V4
p2
sS'pbs_home'
p3
S'/home2/jcjeong/project/stanalyzer0/stanalyzer/media/jcjeong/20130111120016590492y5QLE1/pbs'
p4
sS'pbs'
p5
V#!/bin/csh\u000a#PBS -l nodes=1:ppn=1\u000a#PBS -l mem=500mb\u000a#PBS -l walltime=72:00:00\u000a#PBS -l cput=72:00:00\u000a#PBS -q default\u000a
p6
sS'job_pkey'
p7
(I11
tp8
sS'output_home'
p9
S'/home2/jcjeong/project/stanalyzer0/stanalyzer/media/jcjeong/20130111120016590492y5QLE1/'
p10
sS'analyzer_home'
p11
S'/home2/jcjeong/project/stanalyzer0/stanalyzer/static/analyzers'
p12
sS'paraInfo'
p13
(lp14
(lp15
VNumber of Parameters
p16
aasS'media_home'
p17
S'/home2/jcjeong/project/stanalyzer0/stanalyzer/media'
p18
sS'base_path'
p19
S'/home2/jcjeong/project/stanalyzer1/stanalyzer/trajectory/'
p20
sS'path_python'
p21
V/home/sunhwan/local/python/bin/python
p22
sS'Paras'
p23
(lp24
(lp25
V0
p26
aasS'para_pkeys'
p27
(lp28
(lp29
I34
aasS'session_home'
p30
S'/home2/jcjeong/project/stanalyzer0/stanalyzer/media/jcjeong/20130111120016590492y5QLE1'
p31
sS'ptitle'
p32
Vproject3
p33
sS'structure_file'
p34
Vstep5_assembly.psf
p35
sS'trajectory'
p36
(lp37
Vstep7_633.dcd
p38
aVstep7_669.dcd
p39
aVstep7_670.dcd
p40
aVstep7_671.dcd
p41
asS'date'
p42
S'20130111120016590492'
p43
sS'funcName'
p44
(lp45
Vbox
p46
asS'path_output'
p47
S'/home2/jcjeong/project/stanalyzer0/stanalyzer/media/jcjeong/'
p48
sS'dbName'
p49
S'/home2/jcjeong/project/stanalyzer0/stanalyzer/stanalyzer.db'
p50
sS'job_title'
p51
Vanalyzing trajectory
p52
s.