(dp0
S'output_home'
p1
S'/home2/jcjeong/project/stanalyzer0/stanalyzer/media/jcjeong/20130212132902676601kTDRoK/'
p2
sS'num_atoms'
p3
V36855
p4
sS'media_home'
p5
S'/home2/jcjeong/project/stanalyzer0/stanalyzer/media'
p6
sS'funcName'
p7
(lp8
Vbox
p9
aVhelix_tilt
p10
asS'Paras'
p11
(lp12
(lp13
(lp14
I2
aa(lp15
V1
p16
aa(lp17
Voutput.dat
p18
aaa(lp19
(lp20
I6
aa(lp21
g16
ag16
ag16
ag16
ag16
ag16
ag16
ag16
ag16
ag16
ag16
ag16
ag16
ag16
ag16
ag16
ag16
ag16
ag16
ag16
ag16
ag16
ag16
ag16
ag16
ag16
ag16
ag16
ag16
ag16
ag16
ag16
ag16
ag16
ag16
ag16
ag16
ag16
ag16
ag16
aa(lp22
Voutput.dat
p23
aVoutput1.dat
p24
aVoutput2.dat
p25
aVoutput3.dat
p26
aVoutput4.dat
p27
aVoutput5.dat
p28
aVoutput6.dat
p29
aVoutput7.dat
p30
aVoutput8.dat
p31
aVoutput9.dat
p32
aVoutput10.dat
p33
aVoutput11.dat
p34
aVoutput12.dat
p35
aVoutput13.dat
p36
aVoutput14.dat
p37
aVoutput15.dat
p38
aVoutput16.dat
p39
aVoutput17.dat
p40
aVoutput18.dat
p41
aVoutput19.dat
p42
aVoutput20.dat
p43
aVoutput21.dat
p44
aVoutput22.dat
p45
aVoutput23.dat
p46
aVoutput24.dat
p47
aVoutput25.dat
p48
aVoutput26.dat
p49
aVoutput27.dat
p50
aVoutput28.dat
p51
aVoutput29.dat
p52
aVoutput30.dat
p53
aVoutput31.dat
p54
aVoutput32.dat
p55
aVoutput33.dat
p56
aVoutput34.dat
p57
aVoutput35.dat
p58
aVoutput36.dat
p59
aVoutput37.dat
p60
aVoutput38.dat
p61
aVoutput39.dat
p62
aa(lp63
V0
p64
ag64
ag64
ag64
ag64
ag64
ag64
ag64
ag64
ag64
ag64
ag64
ag64
ag64
ag64
ag64
ag64
ag64
ag64
ag64
ag64
ag64
ag64
ag64
ag64
ag64
ag64
ag64
ag64
ag64
ag64
ag64
ag64
ag64
ag64
ag64
ag64
ag64
ag64
ag64
aa(lp65
VPROA
p66
aVPROA
p67
aVPROA
p68
aVPROA
p69
aVPROA
p70
aVPROA
p71
aVPROA
p72
aVPROA
p73
aVPROA
p74
aVPROA
p75
aVPROA
p76
aVPROA
p77
aVPROA
p78
aVPROA
p79
aVPROA
p80
aVPROA
p81
aVPROA
p82
aVPROA
p83
aVPROA
p84
aVPROA
p85
aVPROA
p86
aVPROA
p87
aVPROA
p88
aVPROA
p89
aVPROA
p90
aVPROA
p91
aVPROA
p92
aVPROA
p93
aVPROA
p94
aVPROA
p95
aVPROA
p96
aVPROA
p97
aVPROA
p98
aVPROA
p99
aVPROA
p100
aVPROA
p101
aVPROA
p102
aVPROA
p103
aVPROA
p104
aVPROA
p105
aa(lp106
g16
ag16
ag16
ag16
ag16
ag16
ag16
ag16
ag16
ag16
ag16
ag16
ag16
ag16
ag16
ag16
ag16
ag16
ag16
ag16
ag16
ag16
ag16
ag16
ag16
ag16
ag16
ag16
ag16
ag16
ag16
ag16
ag16
ag16
ag16
ag16
ag16
ag16
ag16
ag16
aa(lp107
V30
p108
aV46
p109
aV15
p110
aV19
p111
aV20
p112
aV30
p113
aV40
p114
aV46
p115
aV28
p116
aV38
p117
aV18
p118
aV19
p119
aV20
p120
aV21
p121
aV22
p122
aV23
p123
aV24
p124
aV25
p125
aV26
p126
aV27
p127
aV28
p128
aV29
p129
aV30
p130
aV31
p131
aV32
p132
aV33
p133
aV34
p134
aV35
p135
aV36
p136
aV37
p137
aV38
p138
aV39
p139
aV40
p140
aV41
p141
aV42
p142
aV43
p143
aV44
p144
aV45
p145
aV46
p146
aV17
p147
aaasS'para_pkeys'
p148
(lp149
(lp150
I1529
aI1530
aI1531
aa(lp151
I1532
aI1533
aI1534
aI1535
aI1536
aI1537
aI1538
aI1539
aI1540
aI1541
aI1542
aI1543
aI1544
aI1545
aI1546
aI1547
aI1548
aI1549
aI1550
aI1551
aI1552
aI1553
aI1554
aI1555
aI1556
aI1557
aI1558
aI1559
aI1560
aI1561
aI1562
aI1563
aI1564
aI1565
aI1566
aI1567
aI1568
aI1569
aI1570
aI1571
aI1572
aI1573
aI1574
aI1575
aI1576
aI1577
aI1578
aI1579
aI1580
aI1581
aI1582
aI1583
aI1584
aI1585
aI1586
aI1587
aI1588
aI1589
aI1590
aI1591
aI1592
aI1593
aI1594
aI1595
aI1596
aI1597
aI1598
aI1599
aI1600
aI1601
aI1602
aI1603
aI1604
aI1605
aI1606
aI1607
aI1608
aI1609
aI1610
aI1611
aI1612
aI1613
aI1614
aI1615
aI1616
aI1617
aI1618
aI1619
aI1620
aI1621
aI1622
aI1623
aI1624
aI1625
aI1626
aI1627
aI1628
aI1629
aI1630
aI1631
aI1632
aI1633
aI1634
aI1635
aI1636
aI1637
aI1638
aI1639
aI1640
aI1641
aI1642
aI1643
aI1644
aI1645
aI1646
aI1647
aI1648
aI1649
aI1650
aI1651
aI1652
aI1653
aI1654
aI1655
aI1656
aI1657
aI1658
aI1659
aI1660
aI1661
aI1662
aI1663
aI1664
aI1665
aI1666
aI1667
aI1668
aI1669
aI1670
aI1671
aI1672
aI1673
aI1674
aI1675
aI1676
aI1677
aI1678
aI1679
aI1680
aI1681
aI1682
aI1683
aI1684
aI1685
aI1686
aI1687
aI1688
aI1689
aI1690
aI1691
aI1692
aI1693
aI1694
aI1695
aI1696
aI1697
aI1698
aI1699
aI1700
aI1701
aI1702
aI1703
aI1704
aI1705
aI1706
aI1707
aI1708
aI1709
aI1710
aI1711
aI1712
aI1713
aI1714
aI1715
aI1716
aI1717
aI1718
aI1719
aI1720
aI1721
aI1722
aI1723
aI1724
aI1725
aI1726
aI1727
aI1728
aI1729
aI1730
aI1731
aI1732
aI1733
aI1734
aI1735
aI1736
aI1737
aI1738
aI1739
aI1740
aI1741
aI1742
aI1743
aI1744
aI1745
aI1746
aI1747
aI1748
aI1749
aI1750
aI1751
aI1752
aI1753
aI1754
aI1755
aI1756
aI1757
aI1758
aI1759
aI1760
aI1761
aI1762
aI1763
aI1764
aI1765
aI1766
aI1767
aI1768
aI1769
aI1770
aI1771
aI1772
aasS'session_home'
p152
S'/home2/jcjeong/project/stanalyzer0/stanalyzer/media/jcjeong/20130212132902676601kTDRoK'
p153
sS'num_frame'
p154
V20
p155
sS'trajectory'
p156
(lp157
Vstep6_1.dcd
p158
aVstep6_2.dcd
p159
aVstep6_3.dcd
p160
aVstep6_10.dcd
p161
aVstep6_11.dcd
p162
aVstep6_100.dcd
p163
aVstep6_101.dcd
p164
aVstep6_200.dcd
p165
aVstep7_1.dcd
p166
aVstep7_2.dcd
p167
aVstep7_3.dcd
p168
aVstep7_4.dcd
p169
aVstep7_5.dcd
p170
aVstep7_10.dcd
p171
aVstep7_20.dcd
p172
aVstep7_30.dcd
p173
aVstep7_40.dcd
p174
aVstep7_50.dcd
p175
aVstep7_100.dcd
p176
aVstep7_110.dcd
p177
aVstep7_633.dcd
p178
aVstep7_669.dcd
p179
aVstep7_670.dcd
p180
aVstep7_671.dcd
p181
aVstep7_672.dcd
p182
aVstep7_673.dcd
p183
aVstep7_674.dcd
p184
aVstep7_675.dcd
p185
aVstep7_676.dcd
p186
aVstep7_677.dcd
p187
aVstep7_678.dcd
p188
aVstep7_1000.dcd
p189
aVstep10_1.dcd
p190
aVstep10_2.dcd
p191
aVstep10_10.dcd
p192
aVstep11_1.dcd
p193
aVstep11_2.dcd
p194
aVstep11_10.dcd
p195
aVstep100_1.dcd
p196
aVstep100_2.dcd
p197
aVstep100_10.dcd
p198
asS'paraInfo'
p199
(lp200
(lp201
VNumber of Parameters
p202
aVFrame interval
p203
aVOutput name
p204
aa(lp205
VNumber of Parameters
p206
aVFrame interval
p207
aVOutput name
p208
aVSegment ID
p209
aVSegment Name
p210
aVStart Residue
p211
aVTerminal Residue
p212
aasS'job_pkey'
p213
(I12
tp214
sS'path_output'
p215
S'/home2/jcjeong/project/stanalyzer0/stanalyzer/media/jcjeong/'
p216
sS'path_python'
p217
V/home/sunhwan/local/python/bin/python
p218
sS'job_title'
p219
Vanalyzing trajectory
p220
sS'pkey'
p221
V1
p222
sS'num_ps'
p223
V2.0
p224
sS'pbs_home'
p225
S'/home2/jcjeong/project/stanalyzer0/stanalyzer/media/jcjeong/20130212132902676601kTDRoK/pbs'
p226
sS'base_path'
p227
S'/home2/jcjeong/project/stanalyzer1/stanalyzer/trajectory/'
p228
sS'date'
p229
S'20130212132902676601'
p230
sS'pbs'
p231
V#!/bin/bash\u000a#PBS -l nodes=1:ppn=1\u000a#PBS -l mem=500mb\u000a#PBS -l walltime=72:00:00\u000a#PBS -l cput=72:00:00\u000a#PBS -q default\u000a
p232
sS'analyzer_home'
p233
S'/home2/jcjeong/project/stanalyzer0/stanalyzer/static/analyzers'
p234
sS'num_files'
p235
V41
p236
sS'ptitle'
p237
Vcalculating helix
p238
sS'structure_file'
p239
Vstep5_assembly.psf
p240
sS'dbName'
p241
S'/home2/jcjeong/project/stanalyzer0/stanalyzer/stanalyzer.db'
p242
s.