(dp0
S'output_home'
p1
S'/home2/jcjeong/project/stanalyzer0/stanalyzer/media/jcjeong/201305011631168971809CRDea/'
p2
sS'num_atoms'
p3
V32727
p4
sS'media_home'
p5
S'/home2/jcjeong/project/stanalyzer0/stanalyzer/media'
p6
sS'funcName'
p7
(lp8
Vordpara_dopc
p9
asS'Paras'
p10
(lp11
(lp12
(lp13
I4
aa(lp14
V1
p15
aa(lp16
Vordpara_dopc.dat
p17
aa(lp18
VZ
p19
aa(lp20
V32727
p21
aaasS'para_pkeys'
p22
(lp23
(lp24
I5284
aI5285
aI5286
aI5287
aI5288
aasS'session_home'
p25
S'/home2/jcjeong/project/stanalyzer0/stanalyzer/media/jcjeong/201305011631168971809CRDea'
p26
sS'num_frame'
p27
V50
p28
sS'trajectory'
p29
(lp30
Vstep7_0.dcd
p31
aVstep7_1.dcd
p32
aVstep7_2.dcd
p33
aVstep7_3.dcd
p34
aVstep7_4.dcd
p35
aVstep7_5.dcd
p36
asS'paraInfo'
p37
(lp38
(lp39
VNumber of Parameters
p40
aVFrame interval
p41
aVOutput name
p42
aVAxis
p43
aVTotal number of atoms
p44
aasS'job_pkey'
p45
(I238
tp46
sS'path_output'
p47
S'/home2/jcjeong/project/stanalyzer0/stanalyzer/media/jcjeong/'
p48
sS'path_python'
p49
V/home/sunhwan/local/python/bin/python
p50
sS'job_title'
p51
Vanalyzing trajectory
p52
sS'pkey'
p53
V1
p54
sS'num_ps'
p55
V5.0
p56
sS'pdb_file'
p57
Vstep5_assembly.pdb
p58
sS'pbs_home'
p59
S'/home2/jcjeong/project/stanalyzer0/stanalyzer/media/jcjeong/201305011631168971809CRDea/pbs'
p60
sS'base_path'
p61
S'/home2/jcjeong/project/charmm/dol_dopc_1/'
p62
sS'date'
p63
S'20130501163116897180'
p64
sS'pbs'
p65
V#!/bin/bash\u000a#PBS -l nodes=1:ppn=1\u000a#PBS -l mem=500mb\u000a#PBS -l walltime=72:00:00\u000a#PBS -l cput=72:00:00\u000a#PBS -q charmm_nmr\u000a
p66
sS'analyzer_home'
p67
S'/home2/jcjeong/project/stanalyzer0/stanalyzer/static/analyzers'
p68
sS'num_files'
p69
V6
p70
sS'ptitle'
p71
Vcalculating helix
p72
sS'structure_file'
p73
Vstep5_assembly.xplor_ext.psf
p74
sS'dbName'
p75
S'/home2/jcjeong/project/stanalyzer0/stanalyzer/stanalyzer.db'
p76
s.