(dp0
S'output_home'
p1
S'/home2/jcjeong/project/stanalyzer0/stanalyzer/media/user/201308061624155018862Xb1Vi/'
p2
sS'num_atoms'
p3
V18019
p4
sS'media_home'
p5
S'/home2/jcjeong/project/stanalyzer0/stanalyzer/media'
p6
sS'funcName'
p7
(lp8
Vlipid_per_area_voro
p9
asS'Paras'
p10
(lp11
(lp12
(lp13
I7
aa(lp14
V1
p15
aa(lp16
Vvoronoi_lipid_per_area.dat
p17
aa(lp18
V18019
p19
aa(lp20
Vsegid MEMB and ((resname CHL1 and name O3) or (resname DOPC and (name C2 or name C21 or name C31)) or (resname POPC and (name C2 or name C21 or name C31)) or (resname POPI and (name C2 or name C21 or name C31)) or (resname POPI13 and (name C2 or name C21 or name C31)))
p21
aa(lp22
V48.1993026733
p23
aa(lp24
V48.1993026733
p25
aa(lp26
V
p27
aaasS'para_pkeys'
p28
(lp29
(lp30
I2230
aI2231
aI2232
aI2233
aI2234
aI2235
aI2236
aI2237
aasS'session_home'
p31
S'/home2/jcjeong/project/stanalyzer0/stanalyzer/media/user/201308061624155018862Xb1Vi'
p32
sS'num_frame'
p33
V40
p34
sS'trajectory'
p35
(lp36
Vlipids_00.dcd
p37
aVlipids_01.dcd
p38
aVlipids_02.dcd
p39
aVlipids_03.dcd
p40
asS'paraInfo'
p41
(lp42
(lp43
VNumber of Parameters
p44
aVFrame interval
p45
aVOutput name
p46
aVTotal number of atoms
p47
aVlipid query
p48
aVmax X coordinate
p49
aVmax Y coordinate
p50
aVqhull path
p51
aasS'job_pkey'
p52
(I261
tp53
sS'path_output'
p54
S'/home2/jcjeong/project/stanalyzer0/stanalyzer/media/user/'
p55
sS'path_python'
p56
V/export/apps/bin/python2.7
p57
sS'job_title'
p58
Vanalyzing trajectory
p59
sS'pkey'
p60
V3
p61
sS'num_ps'
p62
V5.0
p63
sS'pdb_file'
p64
Vlipids.pdb
p65
sS'pbs_home'
p66
S'/home2/jcjeong/project/stanalyzer0/stanalyzer/media/user/201308061624155018862Xb1Vi/pbs'
p67
sS'base_path'
p68
S'/home2/jcjeong/project/stanalyzer0/stanalyzer/trajectory/lipids/'
p69
sS'date'
p70
S'20130806162415501886'
p71
sS'pbs'
p72
V#!/bin/csh\u000a#PBS -l nodes=1:ppn=1\u000a#PBS -l mem=500mb\u000a#PBS -l walltime=72:00:00\u000a#PBS -l cput=72:00:00\u000a#PBS -q default\u000a
p73
sS'analyzer_home'
p74
S'/home2/jcjeong/project/stanalyzer0/stanalyzer/static/analyzers'
p75
sS'num_files'
p76
V4
p77
sS'ptitle'
p78
VArea per lipid
p79
sS'structure_file'
p80
Vlipids.psf
p81
sS'dbName'
p82
S'/home2/jcjeong/project/stanalyzer0/stanalyzer/stanalyzer.db'
p83
s.