(dp0
S'output_home'
p1
S'/home2/jcjeong/project/stanalyzer0/stanalyzer/media/jcjeong/20130820170711672985IFgQOs/'
p2
sS'num_atoms'
p3
V18019
p4
sS'media_home'
p5
S'/home2/jcjeong/project/stanalyzer0/stanalyzer/media'
p6
sS'funcName'
p7
(lp8
Vsterol_tilt_ring
p9
aVsterol_tilt_tail
p10
asS'Paras'
p11
(lp12
(lp13
(lp14
I5
aa(lp15
V1
p16
aa(lp17
Vsterol_ring_tilt.dat
p18
aa(lp19
VMEMB
p20
aa(lp21
VCHL1
p22
aa(lp23
Vname C3 or name C17
p24
aaa(lp25
(lp26
I5
aa(lp27
g16
aa(lp28
Vsterol_tail_tilt.dat
p29
aa(lp30
VMEMB
p31
aa(lp32
VCHL1
p33
aa(lp34
Vname C17 or name C25
p35
aaasS'para_pkeys'
p36
(lp37
(lp38
I2241
aI2242
aI2243
aI2244
aI2245
aI2246
aa(lp39
I2247
aI2248
aI2249
aI2250
aI2251
aI2252
aasS'session_home'
p40
S'/home2/jcjeong/project/stanalyzer0/stanalyzer/media/jcjeong/20130820170711672985IFgQOs'
p41
sS'num_frame'
p42
V40
p43
sS'trajectory'
p44
(lp45
Vlipids_00.dcd
p46
asS'paraInfo'
p47
(lp48
(lp49
VNumber of Parameters
p50
aVFrame interval
p51
aVOutput name
p52
aVSegment ID
p53
aVResidue Name
p54
aVQuery
p55
aa(lp56
VNumber of Parameters
p57
aVFrame interval
p58
aVOutput name
p59
aVSegment ID
p60
aVResidue Name
p61
aVSelection Query
p62
aasS'job_pkey'
p63
(I263
tp64
sS'path_output'
p65
S'/home2/jcjeong/project/stanalyzer0/stanalyzer/media/jcjeong/'
p66
sS'path_python'
p67
V/export/apps/bin/python2.7
p68
sS'job_title'
p69
Vanalyzing trajectory
p70
sS'pkey'
p71
V2
p72
sS'num_ps'
p73
V5.0
p74
sS'pdb_file'
p75
Vlipids.pdb
p76
sS'pbs_home'
p77
S'/home2/jcjeong/project/stanalyzer0/stanalyzer/media/jcjeong/20130820170711672985IFgQOs/pbs'
p78
sS'base_path'
p79
S'/home2/jcjeong/project/stanalyzer0/stanalyzer/trajectory/lipids/'
p80
sS'date'
p81
S'20130820170711672985'
p82
sS'pbs'
p83
V#!/bin/bash\u000a#PBS -l nodes=1:ppn=1\u000a#PBS -l mem=500mb\u000a#PBS -l walltime=72:00:00\u000a#PBS -l cput=72:00:00\u000a#PBS -q default\u000a\u000aexport LD_LIBRARY_PATH=/export/apps/compilers/gcc48/lib64\u000a\u000a
p84
sS'analyzer_home'
p85
S'/home2/jcjeong/project/stanalyzer0/stanalyzer/static/analyzers'
p86
sS'num_files'
p87
V1
p88
sS'ptitle'
p89
VAlpha helix
p90
sS'structure_file'
p91
Vlipids.psf
p92
sS'dbName'
p93
S'/home2/jcjeong/project/stanalyzer0/stanalyzer/stanalyzer.db'
p94
s.