(dp0
S'output_home'
p1
S'/home2/jcjeong/project/stanalyzer0/stanalyzer/media/jcjeong/20130501153328515112LHJ60q/'
p2
sS'num_atoms'
p3
V32727
p4
sS'media_home'
p5
S'/home2/jcjeong/project/stanalyzer0/stanalyzer/media'
p6
sS'funcName'
p7
(lp8
Vordpara_dopc
p9
asS'Paras'
p10
(lp11
(lp12
(lp13
I4
aa(lp14
V1
p15
aa(lp16
Vordpara_dopc.dat
p17
aa(lp18
VZ
p19
aa(lp20
V28935
p21
aaasS'para_pkeys'
p22
(lp23
(lp24
I5229
aI5230
aI5231
aI5232
aI5233
aasS'session_home'
p25
S'/home2/jcjeong/project/stanalyzer0/stanalyzer/media/jcjeong/20130501153328515112LHJ60q'
p26
sS'num_frame'
p27
V50
p28
sS'trajectory'
p29
(lp30
Vstep7_0.dcd
p31
aVstep7_1.dcd
p32
aVstep7_2.dcd
p33
aVstep7_3.dcd
p34
aVstep7_4.dcd
p35
aVstep7_5.dcd
p36
aVstep7_6.dcd
p37
aVstep7_7.dcd
p38
aVstep7_8.dcd
p39
aVstep7_9.dcd
p40
aVstep7_10.dcd
p41
aVstep7_11.dcd
p42
aVstep7_12.dcd
p43
aVstep7_13.dcd
p44
aVstep7_14.dcd
p45
aVstep7_15.dcd
p46
aVstep7_16.dcd
p47
aVstep7_17.dcd
p48
aVstep7_18.dcd
p49
aVstep7_19.dcd
p50
aVstep7_20.dcd
p51
aVstep7_21.dcd
p52
aVstep7_22.dcd
p53
aVstep7_23.dcd
p54
aVstep7_24.dcd
p55
aVstep7_25.dcd
p56
aVstep7_26.dcd
p57
aVstep7_27.dcd
p58
aVstep7_28.dcd
p59
aVstep7_29.dcd
p60
aVstep7_30.dcd
p61
aVstep7_31.dcd
p62
aVstep7_32.dcd
p63
aVstep7_33.dcd
p64
aVstep7_34.dcd
p65
aVstep7_35.dcd
p66
aVstep7_36.dcd
p67
aVstep7_37.dcd
p68
aVstep7_38.dcd
p69
aVstep7_39.dcd
p70
aVstep7_40.dcd
p71
aVstep7_41.dcd
p72
aVstep7_42.dcd
p73
aVstep7_43.dcd
p74
aVstep7_44.dcd
p75
aVstep7_45.dcd
p76
aVstep7_46.dcd
p77
aVstep7_47.dcd
p78
aVstep7_48.dcd
p79
aVstep7_49.dcd
p80
aVstep7_50.dcd
p81
aVstep7_51.dcd
p82
aVstep7_52.dcd
p83
aVstep7_53.dcd
p84
aVstep7_54.dcd
p85
aVstep7_55.dcd
p86
aVstep7_56.dcd
p87
aVstep7_57.dcd
p88
aVstep7_58.dcd
p89
aVstep7_59.dcd
p90
aVstep7_60.dcd
p91
aVstep7_61.dcd
p92
aVstep7_62.dcd
p93
aVstep7_63.dcd
p94
aVstep7_64.dcd
p95
aVstep7_65.dcd
p96
aVstep7_66.dcd
p97
aVstep7_67.dcd
p98
aVstep7_68.dcd
p99
aVstep7_69.dcd
p100
aVstep7_70.dcd
p101
aVstep7_71.dcd
p102
aVstep7_72.dcd
p103
aVstep7_73.dcd
p104
aVstep7_74.dcd
p105
aVstep7_75.dcd
p106
aVstep7_76.dcd
p107
aVstep7_77.dcd
p108
aVstep7_78.dcd
p109
aVstep7_79.dcd
p110
aVstep7_80.dcd
p111
aVstep7_81.dcd
p112
aVstep7_82.dcd
p113
aVstep7_83.dcd
p114
aVstep7_84.dcd
p115
aVstep7_85.dcd
p116
aVstep7_86.dcd
p117
aVstep7_87.dcd
p118
aVstep7_88.dcd
p119
aVstep7_89.dcd
p120
aVstep7_90.dcd
p121
aVstep7_91.dcd
p122
aVstep7_92.dcd
p123
aVstep7_93.dcd
p124
aVstep7_94.dcd
p125
aVstep7_95.dcd
p126
aVstep7_96.dcd
p127
aVstep7_97.dcd
p128
aVstep7_98.dcd
p129
aVstep7_99.dcd
p130
aVstep7_100.dcd
p131
aVstep7_101.dcd
p132
aVstep7_102.dcd
p133
aVstep7_103.dcd
p134
aVstep7_104.dcd
p135
aVstep7_105.dcd
p136
aVstep7_106.dcd
p137
aVstep7_107.dcd
p138
aVstep7_108.dcd
p139
aVstep7_109.dcd
p140
aVstep7_110.dcd
p141
aVstep7_111.dcd
p142
aVstep7_112.dcd
p143
aVstep7_113.dcd
p144
aVstep7_114.dcd
p145
aVstep7_115.dcd
p146
aVstep7_116.dcd
p147
aVstep7_117.dcd
p148
aVstep7_118.dcd
p149
aVstep7_119.dcd
p150
aVstep7_120.dcd
p151
aVstep7_121.dcd
p152
aVstep7_122.dcd
p153
aVstep7_123.dcd
p154
aVstep7_124.dcd
p155
aVstep7_125.dcd
p156
aVstep7_126.dcd
p157
aVstep7_127.dcd
p158
aVstep7_128.dcd
p159
aVstep7_129.dcd
p160
aVstep7_130.dcd
p161
aVstep7_131.dcd
p162
aVstep7_132.dcd
p163
aVstep7_133.dcd
p164
aVstep7_134.dcd
p165
aVstep7_135.dcd
p166
aVstep7_136.dcd
p167
aVstep7_137.dcd
p168
aVstep7_138.dcd
p169
aVstep7_139.dcd
p170
aVstep7_140.dcd
p171
aVstep7_141.dcd
p172
aVstep7_142.dcd
p173
aVstep7_143.dcd
p174
aVstep7_144.dcd
p175
aVstep7_145.dcd
p176
aVstep7_146.dcd
p177
aVstep7_147.dcd
p178
aVstep7_148.dcd
p179
aVstep7_149.dcd
p180
aVstep7_150.dcd
p181
aVstep7_151.dcd
p182
aVstep7_152.dcd
p183
aVstep7_153.dcd
p184
aVstep7_154.dcd
p185
aVstep7_155.dcd
p186
aVstep7_156.dcd
p187
aVstep7_157.dcd
p188
aVstep7_158.dcd
p189
aVstep7_159.dcd
p190
aVstep7_160.dcd
p191
aVstep7_161.dcd
p192
aVstep7_162.dcd
p193
aVstep7_163.dcd
p194
aVstep7_164.dcd
p195
aVstep7_165.dcd
p196
aVstep7_166.dcd
p197
aVstep7_167.dcd
p198
aVstep7_168.dcd
p199
aVstep7_169.dcd
p200
aVstep7_170.dcd
p201
aVstep7_171.dcd
p202
aVstep7_172.dcd
p203
aVstep7_173.dcd
p204
aVstep7_174.dcd
p205
aVstep7_175.dcd
p206
aVstep7_176.dcd
p207
aVstep7_177.dcd
p208
aVstep7_178.dcd
p209
aVstep7_179.dcd
p210
aVstep7_180.dcd
p211
aVstep7_181.dcd
p212
aVstep7_182.dcd
p213
aVstep7_183.dcd
p214
aVstep7_184.dcd
p215
aVstep7_185.dcd
p216
aVstep7_186.dcd
p217
aVstep7_187.dcd
p218
aVstep7_188.dcd
p219
aVstep7_189.dcd
p220
aVstep7_190.dcd
p221
aVstep7_191.dcd
p222
aVstep7_192.dcd
p223
aVstep7_193.dcd
p224
aVstep7_194.dcd
p225
aVstep7_195.dcd
p226
aVstep7_196.dcd
p227
aVstep7_197.dcd
p228
aVstep7_198.dcd
p229
aVstep7_199.dcd
p230
asS'paraInfo'
p231
(lp232
(lp233
VNumber of Parameters
p234
aVFrame interval
p235
aVOutput name
p236
aVAxis
p237
aVTotal number of atoms
p238
aasS'job_pkey'
p239
(I227
tp240
sS'path_output'
p241
S'/home2/jcjeong/project/stanalyzer0/stanalyzer/media/jcjeong/'
p242
sS'path_python'
p243
V/home/sunhwan/local/python/bin/python
p244
sS'job_title'
p245
Vanalyzing trajectory
p246
sS'pkey'
p247
V1
p248
sS'num_ps'
p249
V5.0
p250
sS'pdb_file'
p251
Vstep5_assembly.pdb
p252
sS'pbs_home'
p253
S'/home2/jcjeong/project/stanalyzer0/stanalyzer/media/jcjeong/20130501153328515112LHJ60q/pbs'
p254
sS'base_path'
p255
S'/home2/jcjeong/project/charmm/dol_dopc_1/'
p256
sS'date'
p257
S'20130501153328515112'
p258
sS'pbs'
p259
V#!/bin/bash\u000a#PBS -l nodes=1:ppn=1\u000a#PBS -l mem=500mb\u000a#PBS -l walltime=72:00:00\u000a#PBS -l cput=72:00:00\u000a#PBS -q charmm_nmr\u000a
p260
sS'analyzer_home'
p261
S'/home2/jcjeong/project/stanalyzer0/stanalyzer/static/analyzers'
p262
sS'num_files'
p263
V200
p264
sS'ptitle'
p265
Vcalculating helix
p266
sS'structure_file'
p267
Vstep5_assembly.xplor_ext.psf
p268
sS'dbName'
p269
S'/home2/jcjeong/project/stanalyzer0/stanalyzer/stanalyzer.db'
p270
s.