(dp0
S'output_home'
p1
S'/home2/jcjeong/project/stanalyzer0/stanalyzer/media/jcjeong/20130213105115798177lkJpxV/'
p2
sS'num_atoms'
p3
V36855
p4
sS'media_home'
p5
S'/home2/jcjeong/project/stanalyzer0/stanalyzer/media'
p6
sS'funcName'
p7
(lp8
Vbox
p9
asS'Paras'
p10
(lp11
(lp12
(lp13
I2
aa(lp14
V1
p15
aa(lp16
Voutput.dat
p17
aaasS'para_pkeys'
p18
(lp19
(lp20
I2601
aI2602
aI2603
aasS'session_home'
p21
S'/home2/jcjeong/project/stanalyzer0/stanalyzer/media/jcjeong/20130213105115798177lkJpxV'
p22
sS'num_frame'
p23
V10
p24
sS'trajectory'
p25
(lp26
Vstep6_1.dcd
p27
aVstep6_2.dcd
p28
asS'paraInfo'
p29
(lp30
(lp31
VNumber of Parameters
p32
aVFrame interval
p33
aVOutput name
p34
aasS'job_pkey'
p35
(I48
tp36
sS'path_output'
p37
S'/home2/jcjeong/project/stanalyzer0/stanalyzer/media/jcjeong/'
p38
sS'path_python'
p39
V/home/sunhwan/local/python/bin/python
p40
sS'job_title'
p41
Vanalyzing trajectory
p42
sS'pkey'
p43
V1
p44
sS'num_ps'
p45
V2.0
p46
sS'pbs_home'
p47
S'/home2/jcjeong/project/stanalyzer0/stanalyzer/media/jcjeong/20130213105115798177lkJpxV/pbs'
p48
sS'base_path'
p49
S'/home2/jcjeong/project/stanalyzer1/stanalyzer/trajectory/'
p50
sS'date'
p51
S'20130213105115798177'
p52
sS'pbs'
p53
V#!/bin/bash\u000a#PBS -l nodes=1:ppn=1\u000a#PBS -l mem=500mb\u000a#PBS -l walltime=72:00:00\u000a#PBS -l cput=72:00:00\u000a#PBS -q default\u000a
p54
sS'analyzer_home'
p55
S'/home2/jcjeong/project/stanalyzer0/stanalyzer/static/analyzers'
p56
sS'num_files'
p57
V2
p58
sS'ptitle'
p59
Vcalculating helix
p60
sS'structure_file'
p61
Vstep5_assembly.psf
p62
sS'dbName'
p63
S'/home2/jcjeong/project/stanalyzer0/stanalyzer/stanalyzer.db'
p64
s.