(dp0
S'output_home'
p1
S'/home2/jcjeong/project/stanalyzer0/stanalyzer/media/jcjeong/20130212134715672011ZA3ayO/'
p2
sS'num_atoms'
p3
V36855
p4
sS'media_home'
p5
S'/home2/jcjeong/project/stanalyzer0/stanalyzer/media'
p6
sS'funcName'
p7
(lp8
Vbox
p9
aVhelix_tilt
p10
asS'Paras'
p11
(lp12
(lp13
(lp14
I2
aa(lp15
V1
p16
aa(lp17
Voutput.dat
p18
aaa(lp19
(lp20
I6
aa(lp21
g16
ag16
ag16
ag16
ag16
ag16
ag16
ag16
ag16
ag16
ag16
ag16
ag16
ag16
ag16
ag16
ag16
ag16
ag16
ag16
ag16
ag16
ag16
ag16
ag16
ag16
ag16
ag16
ag16
ag16
ag16
ag16
ag16
ag16
ag16
ag16
ag16
ag16
ag16
ag16
aa(lp22
Voutput.dat
p23
aVoutput1.dat
p24
aVoutput2.dat
p25
aVoutput3.dat
p26
aVoutput4.dat
p27
aVoutput5.dat
p28
aVoutput6.dat
p29
aVoutput7.dat
p30
aVoutput8.dat
p31
aVoutput9.dat
p32
aVoutput10.dat
p33
aVoutput11.dat
p34
aVoutput12.dat
p35
aVoutput13.dat
p36
aVoutput14.dat
p37
aVoutput15.dat
p38
aVoutput16.dat
p39
aVoutput17.dat
p40
aVoutput18.dat
p41
aVoutput19.dat
p42
aVoutput20.dat
p43
aVoutput21.dat
p44
aVoutput22.dat
p45
aVoutput23.dat
p46
aVoutput24.dat
p47
aVoutput25.dat
p48
aVoutput26.dat
p49
aVoutput27.dat
p50
aVoutput28.dat
p51
aVoutput29.dat
p52
aVoutput30.dat
p53
aVoutput31.dat
p54
aVoutput32.dat
p55
aVoutput33.dat
p56
aVoutput34.dat
p57
aVoutput35.dat
p58
aVoutput36.dat
p59
aVoutput37.dat
p60
aVoutput38.dat
p61
aVoutput39.dat
p62
aa(lp63
V0
p64
ag64
ag64
ag64
ag64
ag64
ag64
ag64
ag64
ag64
ag64
ag64
ag64
ag64
ag64
ag64
ag64
ag64
ag64
ag64
ag64
ag64
ag64
ag64
ag64
ag64
ag64
ag64
ag64
ag64
ag64
ag64
ag64
ag64
ag64
ag64
ag64
ag64
ag64
ag64
aa(lp65
VPROA
p66
aVPROA
p67
aVPROA
p68
aVPROA
p69
aVPROA
p70
aVPROA
p71
aVPROA
p72
aVPROA
p73
aVPROA
p74
aVPROA
p75
aVPROA
p76
aVPROA
p77
aVPROA
p78
aVPROA
p79
aVPROA
p80
aVPROA
p81
aVPROA
p82
aVPROA
p83
aVPROA
p84
aVPROA
p85
aVPROA
p86
aVPROA
p87
aVPROA
p88
aVPROA
p89
aVPROA
p90
aVPROA
p91
aVPROA
p92
aVPROA
p93
aVPROA
p94
aVPROA
p95
aVPROA
p96
aVPROA
p97
aVPROA
p98
aVPROA
p99
aVPROA
p100
aVPROA
p101
aVPROA
p102
aVPROA
p103
aVPROA
p104
aVPROA
p105
aa(lp106
g16
ag16
ag16
ag16
ag16
ag16
ag16
ag16
ag16
ag16
ag16
ag16
ag16
ag16
ag16
ag16
ag16
ag16
ag16
ag16
ag16
ag16
ag16
ag16
ag16
ag16
ag16
ag16
ag16
ag16
ag16
ag16
ag16
ag16
ag16
ag16
ag16
ag16
ag16
ag16
aa(lp107
V30
p108
aV46
p109
aV15
p110
aV19
p111
aV20
p112
aV30
p113
aV40
p114
aV46
p115
aV28
p116
aV38
p117
aV18
p118
aV19
p119
aV20
p120
aV21
p121
aV22
p122
aV23
p123
aV24
p124
aV25
p125
aV26
p126
aV27
p127
aV28
p128
aV29
p129
aV30
p130
aV31
p131
aV32
p132
aV33
p133
aV34
p134
aV35
p135
aV36
p136
aV37
p137
aV38
p138
aV39
p139
aV40
p140
aV41
p141
aV42
p142
aV43
p143
aV44
p144
aV45
p145
aV46
p146
aV17
p147
aaasS'para_pkeys'
p148
(lp149
(lp150
I2017
aI2018
aI2019
aa(lp151
I2020
aI2021
aI2022
aI2023
aI2024
aI2025
aI2026
aI2027
aI2028
aI2029
aI2030
aI2031
aI2032
aI2033
aI2034
aI2035
aI2036
aI2037
aI2038
aI2039
aI2040
aI2041
aI2042
aI2043
aI2044
aI2045
aI2046
aI2047
aI2048
aI2049
aI2050
aI2051
aI2052
aI2053
aI2054
aI2055
aI2056
aI2057
aI2058
aI2059
aI2060
aI2061
aI2062
aI2063
aI2064
aI2065
aI2066
aI2067
aI2068
aI2069
aI2070
aI2071
aI2072
aI2073
aI2074
aI2075
aI2076
aI2077
aI2078
aI2079
aI2080
aI2081
aI2082
aI2083
aI2084
aI2085
aI2086
aI2087
aI2088
aI2089
aI2090
aI2091
aI2092
aI2093
aI2094
aI2095
aI2096
aI2097
aI2098
aI2099
aI2100
aI2101
aI2102
aI2103
aI2104
aI2105
aI2106
aI2107
aI2108
aI2109
aI2110
aI2111
aI2112
aI2113
aI2114
aI2115
aI2116
aI2117
aI2118
aI2119
aI2120
aI2121
aI2122
aI2123
aI2124
aI2125
aI2126
aI2127
aI2128
aI2129
aI2130
aI2131
aI2132
aI2133
aI2134
aI2135
aI2136
aI2137
aI2138
aI2139
aI2140
aI2141
aI2142
aI2143
aI2144
aI2145
aI2146
aI2147
aI2148
aI2149
aI2150
aI2151
aI2152
aI2153
aI2154
aI2155
aI2156
aI2157
aI2158
aI2159
aI2160
aI2161
aI2162
aI2163
aI2164
aI2165
aI2166
aI2167
aI2168
aI2169
aI2170
aI2171
aI2172
aI2173
aI2174
aI2175
aI2176
aI2177
aI2178
aI2179
aI2180
aI2181
aI2182
aI2183
aI2184
aI2185
aI2186
aI2187
aI2188
aI2189
aI2190
aI2191
aI2192
aI2193
aI2194
aI2195
aI2196
aI2197
aI2198
aI2199
aI2200
aI2201
aI2202
aI2203
aI2204
aI2205
aI2206
aI2207
aI2208
aI2209
aI2210
aI2211
aI2212
aI2213
aI2214
aI2215
aI2216
aI2217
aI2218
aI2219
aI2220
aI2221
aI2222
aI2223
aI2224
aI2225
aI2226
aI2227
aI2228
aI2229
aI2230
aI2231
aI2232
aI2233
aI2234
aI2235
aI2236
aI2237
aI2238
aI2239
aI2240
aI2241
aI2242
aI2243
aI2244
aI2245
aI2246
aI2247
aI2248
aI2249
aI2250
aI2251
aI2252
aI2253
aI2254
aI2255
aI2256
aI2257
aI2258
aI2259
aI2260
aasS'session_home'
p152
S'/home2/jcjeong/project/stanalyzer0/stanalyzer/media/jcjeong/20130212134715672011ZA3ayO'
p153
sS'num_frame'
p154
V20
p155
sS'trajectory'
p156
(lp157
Vstep6_1.dcd
p158
aVstep6_2.dcd
p159
aVstep6_3.dcd
p160
aVstep6_10.dcd
p161
aVstep6_11.dcd
p162
aVstep6_100.dcd
p163
aVstep6_101.dcd
p164
aVstep6_200.dcd
p165
aVstep7_1.dcd
p166
aVstep7_2.dcd
p167
aVstep7_3.dcd
p168
aVstep7_4.dcd
p169
aVstep7_5.dcd
p170
aVstep7_10.dcd
p171
aVstep7_20.dcd
p172
aVstep7_30.dcd
p173
aVstep7_40.dcd
p174
aVstep7_50.dcd
p175
aVstep7_100.dcd
p176
aVstep7_110.dcd
p177
aVstep7_633.dcd
p178
aVstep7_669.dcd
p179
aVstep7_670.dcd
p180
aVstep7_671.dcd
p181
aVstep7_672.dcd
p182
aVstep7_673.dcd
p183
aVstep7_674.dcd
p184
aVstep7_675.dcd
p185
aVstep7_676.dcd
p186
aVstep7_677.dcd
p187
aVstep7_678.dcd
p188
aVstep7_1000.dcd
p189
aVstep10_1.dcd
p190
aVstep10_2.dcd
p191
aVstep10_10.dcd
p192
aVstep11_1.dcd
p193
aVstep11_2.dcd
p194
aVstep11_10.dcd
p195
aVstep100_1.dcd
p196
aVstep100_2.dcd
p197
aVstep100_10.dcd
p198
asS'paraInfo'
p199
(lp200
(lp201
VNumber of Parameters
p202
aVFrame interval
p203
aVOutput name
p204
aa(lp205
VNumber of Parameters
p206
aVFrame interval
p207
aVOutput name
p208
aVSegment ID
p209
aVSegment Name
p210
aVStart Residue
p211
aVTerminal Residue
p212
aasS'job_pkey'
p213
(I14
tp214
sS'path_output'
p215
S'/home2/jcjeong/project/stanalyzer0/stanalyzer/media/jcjeong/'
p216
sS'path_python'
p217
V/home/sunhwan/local/python/bin/python
p218
sS'job_title'
p219
Vanalyzing trajectory
p220
sS'pkey'
p221
V1
p222
sS'num_ps'
p223
V2.0
p224
sS'pbs_home'
p225
S'/home2/jcjeong/project/stanalyzer0/stanalyzer/media/jcjeong/20130212134715672011ZA3ayO/pbs'
p226
sS'base_path'
p227
S'/home2/jcjeong/project/stanalyzer1/stanalyzer/trajectory/'
p228
sS'date'
p229
S'20130212134715672011'
p230
sS'pbs'
p231
V#!/bin/bash\u000a#PBS -l nodes=1:ppn=1\u000a#PBS -l mem=500mb\u000a#PBS -l walltime=72:00:00\u000a#PBS -l cput=72:00:00\u000a#PBS -q default\u000a
p232
sS'analyzer_home'
p233
S'/home2/jcjeong/project/stanalyzer0/stanalyzer/static/analyzers'
p234
sS'num_files'
p235
V41
p236
sS'ptitle'
p237
Vcalculating helix
p238
sS'structure_file'
p239
Vstep5_assembly.psf
p240
sS'dbName'
p241
S'/home2/jcjeong/project/stanalyzer0/stanalyzer/stanalyzer.db'
p242
s.