(dp0
S'output_home'
p1
S'/home2/jcjeong/project/stanalyzer0/stanalyzer/media/jcjeong/20130715142751021848IDou0F/'
p2
sS'num_atoms'
p3
V18019
p4
sS'media_home'
p5
S'/home2/jcjeong/project/stanalyzer0/stanalyzer/media'
p6
sS'funcName'
p7
(lp8
sS'Paras'
p9
(lp10
sS'para_pkeys'
p11
(lp12
sS'session_home'
p13
S'/home2/jcjeong/project/stanalyzer0/stanalyzer/media/jcjeong/20130715142751021848IDou0F'
p14
sS'num_frame'
p15
V40
p16
sS'trajectory'
p17
(lp18
Vstep7_321.dcd
p19
asS'paraInfo'
p20
(lp21
sS'job_pkey'
p22
(I124
tp23
sS'path_output'
p24
S'/home2/jcjeong/project/stanalyzer0/stanalyzer/media/jcjeong/'
p25
sS'path_python'
p26
V/export/apps/bin/python2.7
p27
sS'job_title'
p28
Vanalyzing trajectory
p29
sS'pkey'
p30
V1
p31
sS'num_ps'
p32
V5.0
p33
sS'pdb_file'
p34
Vstep5_assembly.pdb
p35
sS'pbs_home'
p36
S'/home2/jcjeong/project/stanalyzer0/stanalyzer/media/jcjeong/20130715142751021848IDou0F/pbs'
p37
sS'base_path'
p38
S'/imscratch/emiliawu/yeast_ecoli/yeast_pc_popi13_1/'
p39
sS'date'
p40
S'20130715142751021848'
p41
sS'pbs'
p42
V#!/bin/bash\u000a#PBS -l nodes=1:ppn=1\u000a#PBS -l mem=500mb\u000a#PBS -l walltime=72:00:00\u000a#PBS -l cput=72:00:00\u000a#PBS -q default\u000a\u000aexport LD_LIBRARY_PATH=/export/apps/compilers/gcc48/lib64\u000a\u000a
p43
sS'analyzer_home'
p44
S'/home2/jcjeong/project/stanalyzer0/stanalyzer/static/analyzers'
p45
sS'num_files'
p46
V1
p47
sS'ptitle'
p48
VST-analyzer test1
p49
sS'structure_file'
p50
Vstep5_assembly.xplor_ext.psf
p51
sS'dbName'
p52
S'/home2/jcjeong/project/stanalyzer0/stanalyzer/stanalyzer.db'
p53
s.