(dp0
S'output_home'
p1
S'/home2/jcjeong/project/stanalyzer0/stanalyzer/media/jcjeong/2013070311165855407113YxIw/'
p2
sS'num_atoms'
p3
V28935
p4
sS'media_home'
p5
S'/home2/jcjeong/project/stanalyzer0/stanalyzer/media'
p6
sS'funcName'
p7
(lp8
Vlipid_per_area_voro
p9
asS'Paras'
p10
(lp11
(lp12
(lp13
I7
aa(lp14
V1
p15
aa(lp16
Vvoronoi_lipid_per_area.dat
p17
aa(lp18
V16170
p19
aa(lp20
Vsegid MEMB and resname DPPE and (name C2 or name C21 or name C31)
p21
aa(lp22
V42
p23
aa(lp24
V42
p25
aa(lp26
V/home2/jcjeong/project/qhull/qhull-2012.1/bin
p27
aaasS'para_pkeys'
p28
(lp29
(lp30
I323
aI324
aI325
aI326
aI327
aI328
aI329
aI330
aasS'session_home'
p31
S'/home2/jcjeong/project/stanalyzer0/stanalyzer/media/jcjeong/2013070311165855407113YxIw'
p32
sS'num_frame'
p33
V40
p34
sS'trajectory'
p35
(lp36
Vstep7_0.dcd
p37
aVstep7_1.dcd
p38
aVstep7_2.dcd
p39
aVstep7_3.dcd
p40
aVstep7_4.dcd
p41
aVstep7_5.dcd
p42
aVstep7_6.dcd
p43
aVstep7_7.dcd
p44
aVstep7_8.dcd
p45
aVstep7_9.dcd
p46
aVstep7_10.dcd
p47
asS'paraInfo'
p48
(lp49
(lp50
VNumber of Parameters
p51
aVFrame interval
p52
aVOutput name
p53
aVTotal number of atoms
p54
aVlipid query
p55
aVmax X coordinate
p56
aVmax Y coordinate
p57
aVqhull path
p58
aasS'job_pkey'
p59
(I46
tp60
sS'path_output'
p61
S'/home2/jcjeong/project/stanalyzer0/stanalyzer/media/jcjeong/'
p62
sS'path_python'
p63
V/home/sunhwan/local/python/bin/python
p64
sS'job_title'
p65
Vanalyzing trajectory
p66
sS'pkey'
p67
V1
p68
sS'num_ps'
p69
V5.0
p70
sS'pdb_file'
p71
Vstep5_assembly.pdb
p72
sS'pbs_home'
p73
S'/home2/jcjeong/project/stanalyzer0/stanalyzer/media/jcjeong/2013070311165855407113YxIw/pbs'
p74
sS'base_path'
p75
S'/home2/jcjeong/project/charmm/emilia/'
p76
sS'date'
p77
S'20130703111658554071'
p78
sS'pbs'
p79
V#!/bin/csh\u000a#PBS -l nodes=1:ppn=1\u000a#PBS -l mem=500mb\u000a#PBS -l walltime=72:00:00\u000a#PBS -l cput=72:00:00\u000a#PBS -q default\u000a
p80
sS'analyzer_home'
p81
S'/home2/jcjeong/project/stanalyzer0/stanalyzer/static/analyzers'
p82
sS'num_files'
p83
V11
p84
sS'ptitle'
p85
VST-analyzer test1
p86
sS'structure_file'
p87
Vstep5_assembly.xplor_ext.psf
p88
sS'dbName'
p89
S'/home2/jcjeong/project/stanalyzer0/stanalyzer/stanalyzer.db'
p90
s.