(dp0
S'output_home'
p1
S'/home2/jcjeong/project/stanalyzer0/stanalyzer/media/jcjeong/201306031335123324235cIt1o/'
p2
sS'num_atoms'
p3
V731
p4
sS'media_home'
p5
S'/home2/jcjeong/project/stanalyzer0/stanalyzer/media'
p6
sS'funcName'
p7
(lp8
Vhelix_tilt
p9
aVrmsd
p10
asS'Paras'
p11
(lp12
(lp13
(lp14
I6
aa(lp15
V1
p16
aa(lp17
Voutput.dat
p18
aa(lp19
V0
p20
aa(lp21
VPROA
p22
aa(lp23
g16
aa(lp24
g16
aaa(lp25
(lp26
I4
aa(lp27
g16
aa(lp28
Vrmsd_ouput.dat
p29
aa(lp30
Vname CA
p31
aa(lp32
Vname CA
p33
aaasS'para_pkeys'
p34
(lp35
(lp36
I6904
aI6905
aI6906
aI6907
aI6908
aI6909
aI6910
aa(lp37
I6911
aI6912
aI6913
aI6914
aI6915
aasS'session_home'
p38
S'/home2/jcjeong/project/stanalyzer0/stanalyzer/media/jcjeong/201306031335123324235cIt1o'
p39
sS'num_frame'
p40
V500
p41
sS'trajectory'
p42
(lp43
Vstep6.3_prod.dcd
p44
asS'paraInfo'
p45
(lp46
(lp47
VNumber of Parameters
p48
aVFrame interval
p49
aVOutput name
p50
aVSegment ID
p51
aVSegment Name
p52
aVStart Residue
p53
aVTerminal Residue
p54
aa(lp55
VNumber of Parameters
p56
aVFrame interval
p57
aVOutput name
p58
aVAlign Selection
p59
aVRMSD Selection
p60
aasS'job_pkey'
p61
(I397
tp62
sS'path_output'
p63
S'/home2/jcjeong/project/stanalyzer0/stanalyzer/media/jcjeong/'
p64
sS'path_python'
p65
V/home/sunhwan/local/python/bin/python
p66
sS'job_title'
p67
Vanalyzing trajectory
p68
sS'pkey'
p69
V1
p70
sS'num_ps'
p71
V100.0
p72
sS'pdb_file'
p73
Vstep3_pbcsetup.pdb
p74
sS'pbs_home'
p75
S'/home2/jcjeong/project/stanalyzer0/stanalyzer/media/jcjeong/201306031335123324235cIt1o/pbs'
p76
sS'base_path'
p77
S'/home2/qiyifei/work/paceCG/read_martini/solution/charmm-gui/namd/'
p78
sS'date'
p79
S'20130603133512332423'
p80
sS'pbs'
p81
V#!/bin/bash\u000a#PBS -l nodes=1:ppn=1\u000a#PBS -l mem=500mb\u000a#PBS -l walltime=72:00:00\u000a#PBS -l cput=72:00:00\u000a#PBS -q charmm_nmr\u000a
p82
sS'analyzer_home'
p83
S'/home2/jcjeong/project/stanalyzer0/stanalyzer/static/analyzers'
p84
sS'num_files'
p85
V1
p86
sS'ptitle'
p87
Vcalculating helix
p88
sS'structure_file'
p89
Vstep3_pbcsetup.psf
p90
sS'dbName'
p91
S'/home2/jcjeong/project/stanalyzer0/stanalyzer/stanalyzer.db'
p92
s.