(dp0
S'output_home'
p1
S'/home2/jcjeong/project/stanalyzer0/stanalyzer/media/jcjeong/20130730155832612325xPlyQk/'
p2
sS'num_atoms'
p3
V36855
p4
sS'media_home'
p5
S'/home2/jcjeong/project/stanalyzer0/stanalyzer/media'
p6
sS'funcName'
p7
(lp8
Vbox
p9
asS'Paras'
p10
(lp11
(lp12
(lp13
I2
aa(lp14
V1
p15
aa(lp16
Vbox_size.dat
p17
aaasS'para_pkeys'
p18
(lp19
(lp20
I1958
aI1959
aI1960
aasS'session_home'
p21
S'/home2/jcjeong/project/stanalyzer0/stanalyzer/media/jcjeong/20130730155832612325xPlyQk'
p22
sS'num_frame'
p23
V20
p24
sS'trajectory'
p25
(lp26
Vmysystem_00.dcd
p27
aVmysystem_01.dcd
p28
aVmysystem_02.dcd
p29
asS'paraInfo'
p30
(lp31
(lp32
VNumber of Parameters
p33
aVFrame interval
p34
aVOutput name
p35
aasS'job_pkey'
p36
(I226
tp37
sS'path_output'
p38
S'/home2/jcjeong/project/stanalyzer0/stanalyzer/media/jcjeong/'
p39
sS'path_python'
p40
V/export/apps/bin/python2.7
p41
sS'job_title'
p42
Vanalyzing trajectory
p43
sS'pkey'
p44
V2
p45
sS'num_ps'
p46
V2.0
p47
sS'pdb_file'
p48
Vmysystem.pdb
p49
sS'pbs_home'
p50
S'/home2/jcjeong/project/stanalyzer0/stanalyzer/media/jcjeong/20130730155832612325xPlyQk/pbs'
p51
sS'base_path'
p52
S'/home2/jcjeong/project/stanalyzer0/stanalyzer/trajectory/protein/'
p53
sS'date'
p54
S'20130730155832612325'
p55
sS'pbs'
p56
V#!/bin/bash\u000a#PBS -l nodes=1:ppn=1\u000a#PBS -l mem=500mb\u000a#PBS -l walltime=72:00:00\u000a#PBS -l cput=72:00:00\u000a#PBS -q default\u000a\u000aexport LD_LIBRARY_PATH=/export/apps/compilers/gcc48/lib64\u000a\u000a
p57
sS'analyzer_home'
p58
S'/home2/jcjeong/project/stanalyzer0/stanalyzer/static/analyzers'
p59
sS'num_files'
p60
V3
p61
sS'ptitle'
p62
VMy system: alpha helix
p63
sS'structure_file'
p64
Vmysystem.psf
p65
sS'dbName'
p66
S'/home2/jcjeong/project/stanalyzer0/stanalyzer/stanalyzer.db'
p67
s.