(dp0
S'output_home'
p1
S'/home2/jcjeong/project/stanalyzer0/stanalyzer/media/jcjeong/20130213135622848099CZgioA/'
p2
sS'num_atoms'
p3
V36855
p4
sS'media_home'
p5
S'/home2/jcjeong/project/stanalyzer0/stanalyzer/media'
p6
sS'funcName'
p7
(lp8
Vhelix_tilt
p9
asS'Paras'
p10
(lp11
(lp12
(lp13
I6
aa(lp14
V1
p15
aa(lp16
Voutput.dat
p17
aa(lp18
V0
p19
aa(lp20
VPROA
p21
aa(lp22
g15
aa(lp23
V46
p24
aaasS'para_pkeys'
p25
(lp26
(lp27
I2743
aI2744
aI2745
aI2746
aI2747
aI2748
aI2749
aasS'session_home'
p28
S'/home2/jcjeong/project/stanalyzer0/stanalyzer/media/jcjeong/20130213135622848099CZgioA'
p29
sS'num_frame'
p30
V10
p31
sS'trajectory'
p32
(lp33
Vstep6_1.dcd
p34
aVstep6_2.dcd
p35
asS'paraInfo'
p36
(lp37
(lp38
VNumber of Parameters
p39
aVFrame interval
p40
aVOutput name
p41
aVSegment ID
p42
aVSegment Name
p43
aVStart Residue
p44
aVTerminal Residue
p45
aasS'job_pkey'
p46
(I63
tp47
sS'path_output'
p48
S'/home2/jcjeong/project/stanalyzer0/stanalyzer/media/jcjeong/'
p49
sS'path_python'
p50
V/home/sunhwan/local/python/bin/python
p51
sS'job_title'
p52
Vanalyzing trajectory
p53
sS'pkey'
p54
V1
p55
sS'num_ps'
p56
V2.0
p57
sS'pbs_home'
p58
S'/home2/jcjeong/project/stanalyzer0/stanalyzer/media/jcjeong/20130213135622848099CZgioA/pbs'
p59
sS'base_path'
p60
S'/home2/jcjeong/project/stanalyzer1/stanalyzer/trajectory/'
p61
sS'date'
p62
S'20130213135622848099'
p63
sS'pbs'
p64
V#!/bin/bash\u000a#PBS -l nodes=1:ppn=1\u000a#PBS -l mem=500mb\u000a#PBS -l walltime=72:00:00\u000a#PBS -l cput=72:00:00\u000a#PBS -q default\u000a
p65
sS'analyzer_home'
p66
S'/home2/jcjeong/project/stanalyzer0/stanalyzer/static/analyzers'
p67
sS'num_files'
p68
V2
p69
sS'ptitle'
p70
Vcalculating helix
p71
sS'structure_file'
p72
Vstep5_assembly.psf
p73
sS'dbName'
p74
S'/home2/jcjeong/project/stanalyzer0/stanalyzer/stanalyzer.db'
p75
s.