(dp0
S'output_home'
p1
S'/home2/jcjeong/project/stanalyzer0/stanalyzer/media/jcjeong/20130409155708664257bzlfXD/'
p2
sS'num_atoms'
p3
V36855
p4
sS'media_home'
p5
S'/home2/jcjeong/project/stanalyzer0/stanalyzer/media'
p6
sS'funcName'
p7
(lp8
Vhelix_tilt
p9
aVdensity
p10
asS'Paras'
p11
(lp12
(lp13
(lp14
I6
aa(lp15
V1
p16
ag16
ag16
aa(lp17
Voutput.dat
p18
aVoutput1.dat
p19
aVoutput2.dat
p20
aa(lp21
V0
p22
ag22
ag22
aa(lp23
VPROA
p24
aVPROA
p25
aVPROA
p26
aa(lp27
g16
ag16
ag16
aa(lp28
V17
p29
aV43
p30
aV34
p31
aaa(lp32
(lp33
I8
aa(lp34
g16
ag16
ag16
ag16
aa(lp35
Vdensity_all.dat
p36
aVdensity_lipid_head.dat
p37
aVdensity_lipid_tail.dat
p38
aVdensity_water.dat
p39
aa(lp40
VZ
p41
ag41
ag41
ag41
aa(lp42
V-77
p43
aV-77
p44
aV-77
p45
aV-77
p46
aa(lp47
V77
p48
aV77
p49
aV77
p50
aV77
p51
aa(lp52
g16
ag16
ag16
ag16
aa(lp53
Vall
p54
aVsegid MEMB and ( name P or name N or (name C1* and not name C1) or name O1* )
p55
aVsegid MEMB and ( name C2* or name C3* ) and not ( name C21 or  name C31 )
p56
aVsegid TIP3 and name OH2
p57
aa(lp58
V36855
p59
aV36855
p60
aV36855
p61
aV36855
p62
aaasS'para_pkeys'
p63
(lp64
(lp65
I3781
aI3782
aI3783
aI3784
aI3785
aI3786
aI3787
aI3788
aI3789
aI3790
aI3791
aI3792
aI3793
aI3794
aI3795
aI3796
aI3797
aI3798
aI3799
aa(lp66
I3800
aI3801
aI3802
aI3803
aI3804
aI3805
aI3806
aI3807
aI3808
aI3809
aI3810
aI3811
aI3812
aI3813
aI3814
aI3815
aI3816
aI3817
aI3818
aI3819
aI3820
aI3821
aI3822
aI3823
aI3824
aI3825
aI3826
aI3827
aI3828
aI3829
aI3830
aI3831
aI3832
aasS'session_home'
p67
S'/home2/jcjeong/project/stanalyzer0/stanalyzer/media/jcjeong/20130409155708664257bzlfXD'
p68
sS'num_frame'
p69
V20
p70
sS'trajectory'
p71
(lp72
Vstep6_1.dcd
p73
asS'paraInfo'
p74
(lp75
(lp76
VNumber of Parameters
p77
aVFrame interval
p78
aVOutput name
p79
aVSegment ID
p80
aVSegment Name
p81
aVStart Residue
p82
aVTerminal Residue
p83
aa(lp84
VNumber of Parameters
p85
aVFrame interval
p86
aVOutput name
p87
aVAxis
p88
aVMinimum value in the given axis
p89
aVMaximum value in the given axis
p90
aVBin size
p91
aVQuery
p92
aVTotal number of atoms
p93
aasS'job_pkey'
p94
(I149
tp95
sS'path_output'
p96
S'/home2/jcjeong/project/stanalyzer0/stanalyzer/media/jcjeong/'
p97
sS'path_python'
p98
V/home/sunhwan/local/python/bin/python
p99
sS'job_title'
p100
Vanalyzing trajectory
p101
sS'pkey'
p102
V1
p103
sS'num_ps'
p104
V2.0
p105
sS'pdb_file'
p106
Vstep7_691.pdb
p107
sS'pbs_home'
p108
S'/home2/jcjeong/project/stanalyzer0/stanalyzer/media/jcjeong/20130409155708664257bzlfXD/pbs'
p109
sS'base_path'
p110
S'/home2/jcjeong/project/stanalyzer1/stanalyzer/trajectory/'
p111
sS'date'
p112
S'20130409155708664257'
p113
sS'pbs'
p114
V#!/bin/bash\u000a#PBS -l nodes=1:ppn=1\u000a#PBS -l mem=500mb\u000a#PBS -l walltime=72:00:00\u000a#PBS -l cput=72:00:00\u000a#PBS -q charmm_nmr\u000a
p115
sS'analyzer_home'
p116
S'/home2/jcjeong/project/stanalyzer0/stanalyzer/static/analyzers'
p117
sS'num_files'
p118
V1
p119
sS'ptitle'
p120
Vcalculating helix
p121
sS'structure_file'
p122
Vstep5_assembly.psf
p123
sS'dbName'
p124
S'/home2/jcjeong/project/stanalyzer0/stanalyzer/stanalyzer.db'
p125
s.