(dp0
S'output_home'
p1
S'/home2/jcjeong/project/stanalyzer0/stanalyzer/media/jcjeong/201310071644120677334V0Poa/'
p2
sS'num_atoms'
p3
V17830
p4
sS'media_home'
p5
S'/home2/jcjeong/project/stanalyzer0/stanalyzer/media'
p6
sS'funcName'
p7
(lp8
Varea_per_lipid
p9
asS'Paras'
p10
(lp11
(lp12
(lp13
I7
aa(lp14
V1
p15
aa(lp16
Vvoronoi_lipid_per_area_size55.dat
p17
aa(lp18
V17830
p19
aa(lp20
Vsegid MEMB and ((resname CHL1 and name O3) or (resname DOPC and (name C2 or name C21 or name C31)) or (resname POPS and (name C2 or name C21 or name C31)) or (resname POPI and (name C2 or name C21 or name C31)) or (resname POPI13 and (name C2 or name C21 or name C31)))
p21
aa(lp22
V55
p23
aa(lp24
V55
p25
aa(lp26
V
p27
aaasS'para_pkeys'
p28
(lp29
(lp30
I2884
aI2885
aI2886
aI2887
aI2888
aI2889
aI2890
aI2891
aasS'session_home'
p31
S'/home2/jcjeong/project/stanalyzer0/stanalyzer/media/jcjeong/201310071644120677334V0Poa'
p32
sS'num_frame'
p33
V40
p34
sS'trajectory'
p35
(lp36
Vstep7_0.dcd
p37
aVstep7_1.dcd
p38
aVstep7_2.dcd
p39
aVstep7_3.dcd
p40
aVstep7_4.dcd
p41
aVstep7_5.dcd
p42
aVstep7_6.dcd
p43
aVstep7_7.dcd
p44
aVstep7_8.dcd
p45
aVstep7_9.dcd
p46
aVstep7_10.dcd
p47
aVstep7_11.dcd
p48
aVstep7_12.dcd
p49
aVstep7_13.dcd
p50
aVstep7_14.dcd
p51
aVstep7_15.dcd
p52
aVstep7_16.dcd
p53
aVstep7_17.dcd
p54
aVstep7_18.dcd
p55
aVstep7_19.dcd
p56
aVstep7_20.dcd
p57
aVstep7_21.dcd
p58
aVstep7_22.dcd
p59
aVstep7_23.dcd
p60
aVstep7_24.dcd
p61
aVstep7_25.dcd
p62
aVstep7_26.dcd
p63
aVstep7_27.dcd
p64
aVstep7_28.dcd
p65
aVstep7_29.dcd
p66
aVstep7_30.dcd
p67
aVstep7_31.dcd
p68
aVstep7_32.dcd
p69
aVstep7_33.dcd
p70
aVstep7_34.dcd
p71
aVstep7_35.dcd
p72
aVstep7_36.dcd
p73
aVstep7_37.dcd
p74
aVstep7_38.dcd
p75
aVstep7_39.dcd
p76
aVstep7_40.dcd
p77
aVstep7_41.dcd
p78
aVstep7_42.dcd
p79
aVstep7_43.dcd
p80
aVstep7_44.dcd
p81
aVstep7_45.dcd
p82
aVstep7_46.dcd
p83
aVstep7_47.dcd
p84
aVstep7_48.dcd
p85
aVstep7_49.dcd
p86
aVstep7_50.dcd
p87
aVstep7_51.dcd
p88
aVstep7_52.dcd
p89
aVstep7_53.dcd
p90
aVstep7_54.dcd
p91
aVstep7_55.dcd
p92
aVstep7_56.dcd
p93
aVstep7_57.dcd
p94
aVstep7_58.dcd
p95
aVstep7_59.dcd
p96
aVstep7_60.dcd
p97
aVstep7_61.dcd
p98
aVstep7_62.dcd
p99
aVstep7_63.dcd
p100
aVstep7_64.dcd
p101
aVstep7_65.dcd
p102
aVstep7_66.dcd
p103
aVstep7_67.dcd
p104
aVstep7_68.dcd
p105
aVstep7_69.dcd
p106
aVstep7_70.dcd
p107
aVstep7_71.dcd
p108
aVstep7_72.dcd
p109
aVstep7_73.dcd
p110
aVstep7_74.dcd
p111
aVstep7_75.dcd
p112
aVstep7_76.dcd
p113
aVstep7_77.dcd
p114
aVstep7_78.dcd
p115
aVstep7_79.dcd
p116
aVstep7_80.dcd
p117
aVstep7_81.dcd
p118
aVstep7_82.dcd
p119
aVstep7_83.dcd
p120
aVstep7_84.dcd
p121
aVstep7_85.dcd
p122
aVstep7_86.dcd
p123
aVstep7_87.dcd
p124
aVstep7_88.dcd
p125
aVstep7_89.dcd
p126
aVstep7_90.dcd
p127
aVstep7_91.dcd
p128
aVstep7_92.dcd
p129
aVstep7_93.dcd
p130
aVstep7_94.dcd
p131
aVstep7_95.dcd
p132
aVstep7_96.dcd
p133
aVstep7_97.dcd
p134
aVstep7_98.dcd
p135
aVstep7_99.dcd
p136
aVstep7_100.dcd
p137
aVstep7_101.dcd
p138
aVstep7_102.dcd
p139
aVstep7_103.dcd
p140
aVstep7_104.dcd
p141
aVstep7_105.dcd
p142
aVstep7_106.dcd
p143
aVstep7_107.dcd
p144
aVstep7_108.dcd
p145
aVstep7_109.dcd
p146
aVstep7_110.dcd
p147
aVstep7_111.dcd
p148
aVstep7_112.dcd
p149
aVstep7_113.dcd
p150
aVstep7_114.dcd
p151
aVstep7_115.dcd
p152
aVstep7_116.dcd
p153
aVstep7_117.dcd
p154
aVstep7_118.dcd
p155
aVstep7_119.dcd
p156
aVstep7_120.dcd
p157
aVstep7_121.dcd
p158
aVstep7_122.dcd
p159
aVstep7_123.dcd
p160
aVstep7_124.dcd
p161
aVstep7_125.dcd
p162
aVstep7_126.dcd
p163
aVstep7_127.dcd
p164
aVstep7_128.dcd
p165
aVstep7_129.dcd
p166
aVstep7_130.dcd
p167
aVstep7_131.dcd
p168
aVstep7_132.dcd
p169
aVstep7_133.dcd
p170
aVstep7_134.dcd
p171
aVstep7_135.dcd
p172
aVstep7_136.dcd
p173
aVstep7_137.dcd
p174
aVstep7_138.dcd
p175
aVstep7_139.dcd
p176
aVstep7_140.dcd
p177
aVstep7_141.dcd
p178
aVstep7_142.dcd
p179
aVstep7_143.dcd
p180
aVstep7_144.dcd
p181
aVstep7_145.dcd
p182
aVstep7_146.dcd
p183
aVstep7_147.dcd
p184
aVstep7_148.dcd
p185
aVstep7_149.dcd
p186
aVstep7_150.dcd
p187
aVstep7_151.dcd
p188
aVstep7_152.dcd
p189
aVstep7_153.dcd
p190
aVstep7_154.dcd
p191
aVstep7_155.dcd
p192
aVstep7_156.dcd
p193
aVstep7_157.dcd
p194
aVstep7_158.dcd
p195
aVstep7_159.dcd
p196
aVstep7_160.dcd
p197
aVstep7_161.dcd
p198
aVstep7_162.dcd
p199
aVstep7_163.dcd
p200
aVstep7_164.dcd
p201
aVstep7_165.dcd
p202
aVstep7_166.dcd
p203
aVstep7_167.dcd
p204
aVstep7_168.dcd
p205
aVstep7_169.dcd
p206
aVstep7_170.dcd
p207
aVstep7_171.dcd
p208
aVstep7_172.dcd
p209
aVstep7_173.dcd
p210
aVstep7_174.dcd
p211
aVstep7_175.dcd
p212
aVstep7_176.dcd
p213
aVstep7_177.dcd
p214
aVstep7_178.dcd
p215
aVstep7_179.dcd
p216
aVstep7_180.dcd
p217
aVstep7_181.dcd
p218
aVstep7_182.dcd
p219
aVstep7_183.dcd
p220
aVstep7_184.dcd
p221
aVstep7_185.dcd
p222
aVstep7_186.dcd
p223
aVstep7_187.dcd
p224
aVstep7_188.dcd
p225
aVstep7_189.dcd
p226
aVstep7_190.dcd
p227
aVstep7_191.dcd
p228
aVstep7_192.dcd
p229
aVstep7_193.dcd
p230
aVstep7_194.dcd
p231
aVstep7_195.dcd
p232
aVstep7_196.dcd
p233
aVstep7_197.dcd
p234
aVstep7_198.dcd
p235
aVstep7_199.dcd
p236
aVstep7_200.dcd
p237
aVstep7_201.dcd
p238
aVstep7_202.dcd
p239
aVstep7_203.dcd
p240
aVstep7_204.dcd
p241
aVstep7_205.dcd
p242
aVstep7_206.dcd
p243
aVstep7_207.dcd
p244
aVstep7_208.dcd
p245
aVstep7_209.dcd
p246
aVstep7_210.dcd
p247
aVstep7_211.dcd
p248
aVstep7_212.dcd
p249
aVstep7_213.dcd
p250
aVstep7_214.dcd
p251
aVstep7_215.dcd
p252
aVstep7_216.dcd
p253
aVstep7_217.dcd
p254
aVstep7_218.dcd
p255
aVstep7_219.dcd
p256
aVstep7_220.dcd
p257
aVstep7_221.dcd
p258
aVstep7_222.dcd
p259
aVstep7_223.dcd
p260
aVstep7_224.dcd
p261
aVstep7_225.dcd
p262
aVstep7_226.dcd
p263
aVstep7_227.dcd
p264
aVstep7_228.dcd
p265
aVstep7_229.dcd
p266
aVstep7_230.dcd
p267
aVstep7_231.dcd
p268
aVstep7_232.dcd
p269
aVstep7_233.dcd
p270
aVstep7_234.dcd
p271
aVstep7_235.dcd
p272
aVstep7_236.dcd
p273
aVstep7_237.dcd
p274
aVstep7_238.dcd
p275
aVstep7_239.dcd
p276
aVstep7_240.dcd
p277
aVstep7_241.dcd
p278
aVstep7_242.dcd
p279
aVstep7_243.dcd
p280
aVstep7_244.dcd
p281
aVstep7_245.dcd
p282
aVstep7_246.dcd
p283
aVstep7_247.dcd
p284
aVstep7_248.dcd
p285
aVstep7_249.dcd
p286
aVstep7_250.dcd
p287
aVstep7_251.dcd
p288
aVstep7_252.dcd
p289
aVstep7_253.dcd
p290
aVstep7_254.dcd
p291
aVstep7_255.dcd
p292
aVstep7_256.dcd
p293
aVstep7_257.dcd
p294
aVstep7_258.dcd
p295
aVstep7_259.dcd
p296
aVstep7_260.dcd
p297
aVstep7_261.dcd
p298
aVstep7_262.dcd
p299
aVstep7_263.dcd
p300
aVstep7_264.dcd
p301
aVstep7_265.dcd
p302
aVstep7_266.dcd
p303
aVstep7_267.dcd
p304
aVstep7_268.dcd
p305
aVstep7_269.dcd
p306
aVstep7_270.dcd
p307
aVstep7_271.dcd
p308
aVstep7_272.dcd
p309
aVstep7_273.dcd
p310
aVstep7_274.dcd
p311
aVstep7_275.dcd
p312
aVstep7_276.dcd
p313
aVstep7_277.dcd
p314
aVstep7_278.dcd
p315
aVstep7_279.dcd
p316
aVstep7_280.dcd
p317
aVstep7_281.dcd
p318
aVstep7_282.dcd
p319
aVstep7_283.dcd
p320
aVstep7_284.dcd
p321
aVstep7_285.dcd
p322
aVstep7_286.dcd
p323
aVstep7_287.dcd
p324
aVstep7_288.dcd
p325
aVstep7_289.dcd
p326
aVstep7_290.dcd
p327
aVstep7_291.dcd
p328
aVstep7_292.dcd
p329
aVstep7_293.dcd
p330
aVstep7_294.dcd
p331
aVstep7_295.dcd
p332
aVstep7_296.dcd
p333
aVstep7_297.dcd
p334
aVstep7_298.dcd
p335
aVstep7_299.dcd
p336
aVstep7_300.dcd
p337
aVstep7_301.dcd
p338
aVstep7_302.dcd
p339
aVstep7_303.dcd
p340
aVstep7_304.dcd
p341
aVstep7_305.dcd
p342
aVstep7_306.dcd
p343
aVstep7_307.dcd
p344
aVstep7_308.dcd
p345
aVstep7_309.dcd
p346
aVstep7_310.dcd
p347
aVstep7_311.dcd
p348
aVstep7_312.dcd
p349
aVstep7_313.dcd
p350
aVstep7_314.dcd
p351
aVstep7_315.dcd
p352
aVstep7_316.dcd
p353
aVstep7_317.dcd
p354
aVstep7_318.dcd
p355
aVstep7_319.dcd
p356
aVstep7_320.dcd
p357
aVstep7_321.dcd
p358
aVstep7_322.dcd
p359
aVstep7_323.dcd
p360
aVstep7_324.dcd
p361
aVstep7_325.dcd
p362
aVstep7_326.dcd
p363
aVstep7_327.dcd
p364
aVstep7_328.dcd
p365
aVstep7_329.dcd
p366
aVstep7_330.dcd
p367
aVstep7_331.dcd
p368
aVstep7_332.dcd
p369
aVstep7_333.dcd
p370
aVstep7_334.dcd
p371
aVstep7_335.dcd
p372
aVstep7_336.dcd
p373
aVstep7_337.dcd
p374
aVstep7_338.dcd
p375
aVstep7_339.dcd
p376
aVstep7_340.dcd
p377
aVstep7_341.dcd
p378
aVstep7_342.dcd
p379
aVstep7_343.dcd
p380
aVstep7_344.dcd
p381
aVstep7_345.dcd
p382
aVstep7_346.dcd
p383
aVstep7_347.dcd
p384
aVstep7_348.dcd
p385
aVstep7_349.dcd
p386
aVstep7_350.dcd
p387
aVstep7_351.dcd
p388
aVstep7_352.dcd
p389
aVstep7_353.dcd
p390
aVstep7_354.dcd
p391
aVstep7_355.dcd
p392
aVstep7_356.dcd
p393
aVstep7_357.dcd
p394
aVstep7_358.dcd
p395
aVstep7_359.dcd
p396
aVstep7_360.dcd
p397
aVstep7_361.dcd
p398
aVstep7_362.dcd
p399
aVstep7_363.dcd
p400
aVstep7_364.dcd
p401
aVstep7_365.dcd
p402
aVstep7_366.dcd
p403
aVstep7_367.dcd
p404
aVstep7_368.dcd
p405
aVstep7_369.dcd
p406
aVstep7_370.dcd
p407
aVstep7_371.dcd
p408
aVstep7_372.dcd
p409
aVstep7_373.dcd
p410
aVstep7_374.dcd
p411
aVstep7_375.dcd
p412
aVstep7_376.dcd
p413
aVstep7_377.dcd
p414
aVstep7_378.dcd
p415
aVstep7_379.dcd
p416
aVstep7_380.dcd
p417
aVstep7_381.dcd
p418
aVstep7_382.dcd
p419
aVstep7_383.dcd
p420
aVstep7_384.dcd
p421
aVstep7_385.dcd
p422
aVstep7_386.dcd
p423
aVstep7_387.dcd
p424
aVstep7_388.dcd
p425
aVstep7_389.dcd
p426
aVstep7_390.dcd
p427
aVstep7_391.dcd
p428
aVstep7_392.dcd
p429
aVstep7_393.dcd
p430
aVstep7_394.dcd
p431
aVstep7_395.dcd
p432
aVstep7_396.dcd
p433
aVstep7_397.dcd
p434
aVstep7_398.dcd
p435
aVstep7_399.dcd
p436
aVstep7_400.dcd
p437
aVstep7_401.dcd
p438
aVstep7_402.dcd
p439
aVstep7_403.dcd
p440
aVstep7_404.dcd
p441
aVstep7_405.dcd
p442
aVstep7_406.dcd
p443
aVstep7_407.dcd
p444
aVstep7_408.dcd
p445
aVstep7_409.dcd
p446
aVstep7_410.dcd
p447
aVstep7_411.dcd
p448
aVstep7_412.dcd
p449
aVstep7_413.dcd
p450
aVstep7_414.dcd
p451
aVstep7_415.dcd
p452
aVstep7_416.dcd
p453
aVstep7_417.dcd
p454
aVstep7_418.dcd
p455
aVstep7_419.dcd
p456
aVstep7_420.dcd
p457
aVstep7_421.dcd
p458
aVstep7_422.dcd
p459
aVstep7_423.dcd
p460
aVstep7_424.dcd
p461
aVstep7_425.dcd
p462
aVstep7_426.dcd
p463
aVstep7_427.dcd
p464
aVstep7_428.dcd
p465
aVstep7_429.dcd
p466
aVstep7_430.dcd
p467
aVstep7_431.dcd
p468
aVstep7_432.dcd
p469
aVstep7_433.dcd
p470
aVstep7_434.dcd
p471
aVstep7_435.dcd
p472
aVstep7_436.dcd
p473
aVstep7_437.dcd
p474
aVstep7_438.dcd
p475
aVstep7_439.dcd
p476
aVstep7_440.dcd
p477
aVstep7_441.dcd
p478
aVstep7_442.dcd
p479
aVstep7_443.dcd
p480
aVstep7_444.dcd
p481
aVstep7_445.dcd
p482
aVstep7_446.dcd
p483
aVstep7_447.dcd
p484
aVstep7_448.dcd
p485
aVstep7_449.dcd
p486
aVstep7_450.dcd
p487
aVstep7_451.dcd
p488
aVstep7_452.dcd
p489
aVstep7_453.dcd
p490
aVstep7_454.dcd
p491
aVstep7_455.dcd
p492
aVstep7_456.dcd
p493
aVstep7_457.dcd
p494
aVstep7_458.dcd
p495
aVstep7_459.dcd
p496
aVstep7_460.dcd
p497
aVstep7_461.dcd
p498
aVstep7_462.dcd
p499
aVstep7_463.dcd
p500
aVstep7_464.dcd
p501
aVstep7_465.dcd
p502
aVstep7_466.dcd
p503
aVstep7_467.dcd
p504
aVstep7_468.dcd
p505
aVstep7_469.dcd
p506
aVstep7_470.dcd
p507
aVstep7_471.dcd
p508
aVstep7_472.dcd
p509
aVstep7_473.dcd
p510
aVstep7_474.dcd
p511
aVstep7_475.dcd
p512
aVstep7_476.dcd
p513
aVstep7_477.dcd
p514
aVstep7_478.dcd
p515
aVstep7_479.dcd
p516
aVstep7_480.dcd
p517
aVstep7_481.dcd
p518
aVstep7_482.dcd
p519
aVstep7_483.dcd
p520
aVstep7_484.dcd
p521
aVstep7_485.dcd
p522
aVstep7_486.dcd
p523
aVstep7_487.dcd
p524
aVstep7_488.dcd
p525
aVstep7_489.dcd
p526
aVstep7_490.dcd
p527
aVstep7_491.dcd
p528
aVstep7_492.dcd
p529
aVstep7_493.dcd
p530
aVstep7_494.dcd
p531
aVstep7_495.dcd
p532
aVstep7_496.dcd
p533
aVstep7_497.dcd
p534
aVstep7_498.dcd
p535
aVstep7_499.dcd
p536
aVstep7_500.dcd
p537
aVstep7_501.dcd
p538
aVstep7_502.dcd
p539
aVstep7_503.dcd
p540
aVstep7_504.dcd
p541
aVstep7_505.dcd
p542
aVstep7_506.dcd
p543
aVstep7_507.dcd
p544
aVstep7_508.dcd
p545
aVstep7_509.dcd
p546
aVstep7_510.dcd
p547
aVstep7_511.dcd
p548
aVstep7_512.dcd
p549
aVstep7_513.dcd
p550
aVstep7_514.dcd
p551
aVstep7_515.dcd
p552
aVstep7_516.dcd
p553
aVstep7_517.dcd
p554
aVstep7_518.dcd
p555
aVstep7_519.dcd
p556
aVstep7_520.dcd
p557
aVstep7_521.dcd
p558
aVstep7_522.dcd
p559
aVstep7_523.dcd
p560
aVstep7_524.dcd
p561
aVstep7_525.dcd
p562
aVstep7_526.dcd
p563
aVstep7_527.dcd
p564
aVstep7_528.dcd
p565
aVstep7_529.dcd
p566
aVstep7_530.dcd
p567
aVstep7_531.dcd
p568
aVstep7_532.dcd
p569
aVstep7_533.dcd
p570
aVstep7_534.dcd
p571
aVstep7_535.dcd
p572
aVstep7_536.dcd
p573
aVstep7_537.dcd
p574
aVstep7_538.dcd
p575
aVstep7_539.dcd
p576
aVstep7_540.dcd
p577
aVstep7_541.dcd
p578
aVstep7_542.dcd
p579
aVstep7_543.dcd
p580
aVstep7_544.dcd
p581
aVstep7_545.dcd
p582
aVstep7_546.dcd
p583
aVstep7_547.dcd
p584
aVstep7_548.dcd
p585
aVstep7_549.dcd
p586
aVstep7_550.dcd
p587
aVstep7_551.dcd
p588
aVstep7_552.dcd
p589
aVstep7_553.dcd
p590
aVstep7_554.dcd
p591
aVstep7_555.dcd
p592
aVstep7_556.dcd
p593
aVstep7_557.dcd
p594
aVstep7_558.dcd
p595
aVstep7_559.dcd
p596
aVstep7_560.dcd
p597
aVstep7_561.dcd
p598
aVstep7_562.dcd
p599
aVstep7_563.dcd
p600
aVstep7_564.dcd
p601
aVstep7_565.dcd
p602
aVstep7_566.dcd
p603
aVstep7_567.dcd
p604
aVstep7_568.dcd
p605
aVstep7_569.dcd
p606
aVstep7_570.dcd
p607
aVstep7_571.dcd
p608
aVstep7_572.dcd
p609
aVstep7_573.dcd
p610
aVstep7_574.dcd
p611
aVstep7_575.dcd
p612
aVstep7_576.dcd
p613
aVstep7_577.dcd
p614
aVstep7_578.dcd
p615
aVstep7_579.dcd
p616
aVstep7_580.dcd
p617
aVstep7_581.dcd
p618
aVstep7_582.dcd
p619
aVstep7_583.dcd
p620
aVstep7_584.dcd
p621
aVstep7_585.dcd
p622
aVstep7_586.dcd
p623
aVstep7_587.dcd
p624
aVstep7_588.dcd
p625
aVstep7_589.dcd
p626
aVstep7_590.dcd
p627
aVstep7_591.dcd
p628
aVstep7_592.dcd
p629
aVstep7_593.dcd
p630
aVstep7_594.dcd
p631
aVstep7_595.dcd
p632
aVstep7_596.dcd
p633
aVstep7_597.dcd
p634
aVstep7_598.dcd
p635
aVstep7_599.dcd
p636
aVstep7_600.dcd
p637
aVstep7_601.dcd
p638
aVstep7_602.dcd
p639
aVstep7_603.dcd
p640
aVstep7_604.dcd
p641
aVstep7_605.dcd
p642
aVstep7_606.dcd
p643
aVstep7_607.dcd
p644
aVstep7_608.dcd
p645
aVstep7_609.dcd
p646
aVstep7_610.dcd
p647
aVstep7_611.dcd
p648
aVstep7_612.dcd
p649
aVstep7_613.dcd
p650
aVstep7_614.dcd
p651
aVstep7_615.dcd
p652
aVstep7_616.dcd
p653
aVstep7_617.dcd
p654
aVstep7_618.dcd
p655
aVstep7_619.dcd
p656
aVstep7_620.dcd
p657
aVstep7_621.dcd
p658
aVstep7_622.dcd
p659
aVstep7_623.dcd
p660
aVstep7_624.dcd
p661
aVstep7_625.dcd
p662
aVstep7_626.dcd
p663
aVstep7_627.dcd
p664
aVstep7_628.dcd
p665
aVstep7_629.dcd
p666
aVstep7_630.dcd
p667
aVstep7_631.dcd
p668
aVstep7_632.dcd
p669
aVstep7_633.dcd
p670
aVstep7_634.dcd
p671
aVstep7_635.dcd
p672
aVstep7_636.dcd
p673
aVstep7_637.dcd
p674
aVstep7_638.dcd
p675
aVstep7_639.dcd
p676
aVstep7_640.dcd
p677
aVstep7_641.dcd
p678
aVstep7_642.dcd
p679
aVstep7_643.dcd
p680
aVstep7_644.dcd
p681
aVstep7_645.dcd
p682
aVstep7_646.dcd
p683
aVstep7_647.dcd
p684
aVstep7_648.dcd
p685
aVstep7_649.dcd
p686
aVstep7_650.dcd
p687
aVstep7_651.dcd
p688
aVstep7_652.dcd
p689
aVstep7_653.dcd
p690
aVstep7_654.dcd
p691
aVstep7_655.dcd
p692
aVstep7_656.dcd
p693
aVstep7_657.dcd
p694
aVstep7_658.dcd
p695
aVstep7_659.dcd
p696
aVstep7_660.dcd
p697
aVstep7_661.dcd
p698
aVstep7_662.dcd
p699
aVstep7_663.dcd
p700
aVstep7_664.dcd
p701
aVstep7_665.dcd
p702
aVstep7_666.dcd
p703
aVstep7_667.dcd
p704
aVstep7_668.dcd
p705
aVstep7_669.dcd
p706
aVstep7_670.dcd
p707
aVstep7_671.dcd
p708
aVstep7_672.dcd
p709
aVstep7_673.dcd
p710
aVstep7_674.dcd
p711
aVstep7_675.dcd
p712
aVstep7_676.dcd
p713
aVstep7_677.dcd
p714
aVstep7_678.dcd
p715
aVstep7_679.dcd
p716
aVstep7_680.dcd
p717
aVstep7_681.dcd
p718
aVstep7_682.dcd
p719
aVstep7_683.dcd
p720
aVstep7_684.dcd
p721
aVstep7_685.dcd
p722
aVstep7_686.dcd
p723
aVstep7_687.dcd
p724
aVstep7_688.dcd
p725
aVstep7_689.dcd
p726
aVstep7_690.dcd
p727
aVstep7_691.dcd
p728
aVstep7_692.dcd
p729
aVstep7_693.dcd
p730
aVstep7_694.dcd
p731
aVstep7_695.dcd
p732
aVstep7_696.dcd
p733
aVstep7_697.dcd
p734
aVstep7_698.dcd
p735
aVstep7_699.dcd
p736
aVstep7_700.dcd
p737
aVstep7_701.dcd
p738
aVstep7_702.dcd
p739
aVstep7_703.dcd
p740
aVstep7_704.dcd
p741
aVstep7_705.dcd
p742
aVstep7_706.dcd
p743
aVstep7_707.dcd
p744
aVstep7_708.dcd
p745
aVstep7_709.dcd
p746
aVstep7_710.dcd
p747
aVstep7_711.dcd
p748
aVstep7_712.dcd
p749
aVstep7_713.dcd
p750
aVstep7_714.dcd
p751
aVstep7_715.dcd
p752
aVstep7_716.dcd
p753
aVstep7_717.dcd
p754
aVstep7_718.dcd
p755
aVstep7_719.dcd
p756
aVstep7_720.dcd
p757
aVstep7_721.dcd
p758
aVstep7_722.dcd
p759
aVstep7_723.dcd
p760
aVstep7_724.dcd
p761
aVstep7_725.dcd
p762
aVstep7_726.dcd
p763
aVstep7_727.dcd
p764
aVstep7_728.dcd
p765
aVstep7_729.dcd
p766
aVstep7_730.dcd
p767
aVstep7_731.dcd
p768
aVstep7_732.dcd
p769
aVstep7_733.dcd
p770
aVstep7_734.dcd
p771
aVstep7_735.dcd
p772
aVstep7_736.dcd
p773
aVstep7_737.dcd
p774
aVstep7_738.dcd
p775
aVstep7_739.dcd
p776
aVstep7_740.dcd
p777
aVstep7_741.dcd
p778
aVstep7_742.dcd
p779
aVstep7_743.dcd
p780
aVstep7_744.dcd
p781
aVstep7_745.dcd
p782
aVstep7_746.dcd
p783
aVstep7_747.dcd
p784
aVstep7_748.dcd
p785
aVstep7_749.dcd
p786
aVstep7_750.dcd
p787
aVstep7_751.dcd
p788
aVstep7_752.dcd
p789
aVstep7_753.dcd
p790
aVstep7_754.dcd
p791
aVstep7_755.dcd
p792
aVstep7_756.dcd
p793
aVstep7_757.dcd
p794
aVstep7_758.dcd
p795
aVstep7_759.dcd
p796
aVstep7_760.dcd
p797
aVstep7_761.dcd
p798
aVstep7_762.dcd
p799
aVstep7_763.dcd
p800
aVstep7_764.dcd
p801
aVstep7_765.dcd
p802
aVstep7_766.dcd
p803
aVstep7_767.dcd
p804
aVstep7_768.dcd
p805
aVstep7_769.dcd
p806
aVstep7_770.dcd
p807
aVstep7_771.dcd
p808
aVstep7_772.dcd
p809
aVstep7_773.dcd
p810
aVstep7_774.dcd
p811
aVstep7_775.dcd
p812
aVstep7_776.dcd
p813
aVstep7_777.dcd
p814
aVstep7_778.dcd
p815
aVstep7_779.dcd
p816
aVstep7_780.dcd
p817
aVstep7_781.dcd
p818
aVstep7_782.dcd
p819
aVstep7_783.dcd
p820
aVstep7_784.dcd
p821
aVstep7_785.dcd
p822
aVstep7_786.dcd
p823
aVstep7_787.dcd
p824
aVstep7_788.dcd
p825
aVstep7_789.dcd
p826
aVstep7_790.dcd
p827
aVstep7_791.dcd
p828
aVstep7_792.dcd
p829
aVstep7_793.dcd
p830
aVstep7_794.dcd
p831
aVstep7_795.dcd
p832
aVstep7_796.dcd
p833
aVstep7_797.dcd
p834
aVstep7_798.dcd
p835
aVstep7_799.dcd
p836
aVstep7_800.dcd
p837
aVstep7_801.dcd
p838
aVstep7_802.dcd
p839
aVstep7_803.dcd
p840
aVstep7_804.dcd
p841
aVstep7_805.dcd
p842
aVstep7_806.dcd
p843
aVstep7_807.dcd
p844
aVstep7_808.dcd
p845
aVstep7_809.dcd
p846
aVstep7_810.dcd
p847
aVstep7_811.dcd
p848
aVstep7_812.dcd
p849
aVstep7_813.dcd
p850
aVstep7_814.dcd
p851
aVstep7_815.dcd
p852
aVstep7_816.dcd
p853
aVstep7_817.dcd
p854
aVstep7_818.dcd
p855
aVstep7_819.dcd
p856
aVstep7_820.dcd
p857
aVstep7_821.dcd
p858
aVstep7_822.dcd
p859
aVstep7_823.dcd
p860
aVstep7_824.dcd
p861
aVstep7_825.dcd
p862
aVstep7_826.dcd
p863
aVstep7_827.dcd
p864
aVstep7_828.dcd
p865
aVstep7_829.dcd
p866
aVstep7_830.dcd
p867
aVstep7_831.dcd
p868
aVstep7_832.dcd
p869
aVstep7_833.dcd
p870
aVstep7_834.dcd
p871
aVstep7_835.dcd
p872
aVstep7_836.dcd
p873
aVstep7_837.dcd
p874
aVstep7_838.dcd
p875
aVstep7_839.dcd
p876
aVstep7_840.dcd
p877
aVstep7_841.dcd
p878
aVstep7_842.dcd
p879
aVstep7_843.dcd
p880
aVstep7_844.dcd
p881
aVstep7_845.dcd
p882
aVstep7_846.dcd
p883
aVstep7_847.dcd
p884
aVstep7_848.dcd
p885
aVstep7_849.dcd
p886
aVstep7_850.dcd
p887
aVstep7_851.dcd
p888
aVstep7_852.dcd
p889
aVstep7_853.dcd
p890
aVstep7_854.dcd
p891
aVstep7_855.dcd
p892
aVstep7_856.dcd
p893
aVstep7_857.dcd
p894
aVstep7_858.dcd
p895
aVstep7_859.dcd
p896
aVstep7_860.dcd
p897
aVstep7_861.dcd
p898
aVstep7_862.dcd
p899
aVstep7_863.dcd
p900
aVstep7_864.dcd
p901
aVstep7_865.dcd
p902
aVstep7_866.dcd
p903
aVstep7_867.dcd
p904
aVstep7_868.dcd
p905
aVstep7_869.dcd
p906
aVstep7_870.dcd
p907
aVstep7_871.dcd
p908
aVstep7_872.dcd
p909
aVstep7_873.dcd
p910
aVstep7_874.dcd
p911
aVstep7_875.dcd
p912
aVstep7_876.dcd
p913
aVstep7_877.dcd
p914
aVstep7_878.dcd
p915
aVstep7_879.dcd
p916
aVstep7_880.dcd
p917
aVstep7_881.dcd
p918
aVstep7_882.dcd
p919
aVstep7_883.dcd
p920
aVstep7_884.dcd
p921
aVstep7_885.dcd
p922
aVstep7_886.dcd
p923
aVstep7_887.dcd
p924
aVstep7_888.dcd
p925
aVstep7_889.dcd
p926
aVstep7_890.dcd
p927
aVstep7_891.dcd
p928
aVstep7_892.dcd
p929
aVstep7_893.dcd
p930
aVstep7_894.dcd
p931
aVstep7_895.dcd
p932
aVstep7_896.dcd
p933
aVstep7_897.dcd
p934
aVstep7_898.dcd
p935
aVstep7_899.dcd
p936
aVstep7_900.dcd
p937
aVstep7_901.dcd
p938
aVstep7_902.dcd
p939
aVstep7_903.dcd
p940
aVstep7_904.dcd
p941
aVstep7_905.dcd
p942
aVstep7_906.dcd
p943
aVstep7_907.dcd
p944
aVstep7_908.dcd
p945
aVstep7_909.dcd
p946
aVstep7_910.dcd
p947
aVstep7_911.dcd
p948
aVstep7_912.dcd
p949
aVstep7_913.dcd
p950
aVstep7_914.dcd
p951
aVstep7_915.dcd
p952
aVstep7_916.dcd
p953
aVstep7_917.dcd
p954
aVstep7_918.dcd
p955
aVstep7_919.dcd
p956
aVstep7_920.dcd
p957
aVstep7_921.dcd
p958
aVstep7_922.dcd
p959
aVstep7_923.dcd
p960
aVstep7_924.dcd
p961
aVstep7_925.dcd
p962
aVstep7_926.dcd
p963
aVstep7_927.dcd
p964
aVstep7_928.dcd
p965
aVstep7_929.dcd
p966
aVstep7_930.dcd
p967
aVstep7_931.dcd
p968
aVstep7_932.dcd
p969
aVstep7_933.dcd
p970
aVstep7_934.dcd
p971
aVstep7_935.dcd
p972
aVstep7_936.dcd
p973
aVstep7_937.dcd
p974
aVstep7_938.dcd
p975
aVstep7_939.dcd
p976
aVstep7_940.dcd
p977
aVstep7_941.dcd
p978
aVstep7_942.dcd
p979
aVstep7_943.dcd
p980
aVstep7_944.dcd
p981
aVstep7_945.dcd
p982
aVstep7_946.dcd
p983
aVstep7_947.dcd
p984
aVstep7_948.dcd
p985
aVstep7_949.dcd
p986
aVstep7_950.dcd
p987
aVstep7_951.dcd
p988
aVstep7_952.dcd
p989
aVstep7_953.dcd
p990
aVstep7_954.dcd
p991
aVstep7_955.dcd
p992
aVstep7_956.dcd
p993
aVstep7_957.dcd
p994
aVstep7_958.dcd
p995
aVstep7_959.dcd
p996
aVstep7_960.dcd
p997
aVstep7_961.dcd
p998
aVstep7_962.dcd
p999
aVstep7_963.dcd
p1000
aVstep7_964.dcd
p1001
aVstep7_965.dcd
p1002
aVstep7_966.dcd
p1003
aVstep7_967.dcd
p1004
aVstep7_968.dcd
p1005
aVstep7_969.dcd
p1006
aVstep7_970.dcd
p1007
aVstep7_971.dcd
p1008
aVstep7_972.dcd
p1009
aVstep7_973.dcd
p1010
aVstep7_974.dcd
p1011
aVstep7_975.dcd
p1012
aVstep7_976.dcd
p1013
aVstep7_977.dcd
p1014
aVstep7_978.dcd
p1015
aVstep7_979.dcd
p1016
aVstep7_980.dcd
p1017
aVstep7_981.dcd
p1018
aVstep7_982.dcd
p1019
aVstep7_983.dcd
p1020
aVstep7_984.dcd
p1021
aVstep7_985.dcd
p1022
aVstep7_986.dcd
p1023
aVstep7_987.dcd
p1024
aVstep7_988.dcd
p1025
aVstep7_989.dcd
p1026
aVstep7_990.dcd
p1027
aVstep7_991.dcd
p1028
aVstep7_992.dcd
p1029
aVstep7_993.dcd
p1030
aVstep7_994.dcd
p1031
aVstep7_995.dcd
p1032
aVstep7_996.dcd
p1033
aVstep7_997.dcd
p1034
aVstep7_998.dcd
p1035
aVstep7_999.dcd
p1036
aVstep7_1000.dcd
p1037
aVstep7_1001.dcd
p1038
aVstep7_1002.dcd
p1039
aVstep7_1003.dcd
p1040
aVstep7_1004.dcd
p1041
aVstep7_1005.dcd
p1042
aVstep7_1006.dcd
p1043
aVstep7_1007.dcd
p1044
aVstep7_1008.dcd
p1045
aVstep7_1009.dcd
p1046
aVstep7_1010.dcd
p1047
aVstep7_1011.dcd
p1048
aVstep7_1012.dcd
p1049
aVstep7_1013.dcd
p1050
aVstep7_1014.dcd
p1051
aVstep7_1015.dcd
p1052
aVstep7_1016.dcd
p1053
aVstep7_1017.dcd
p1054
aVstep7_1018.dcd
p1055
aVstep7_1019.dcd
p1056
aVstep7_1020.dcd
p1057
aVstep7_1021.dcd
p1058
aVstep7_1022.dcd
p1059
aVstep7_1023.dcd
p1060
aVstep7_1024.dcd
p1061
aVstep7_1025.dcd
p1062
aVstep7_1026.dcd
p1063
aVstep7_1027.dcd
p1064
aVstep7_1028.dcd
p1065
aVstep7_1029.dcd
p1066
aVstep7_1030.dcd
p1067
aVstep7_1031.dcd
p1068
aVstep7_1032.dcd
p1069
aVstep7_1033.dcd
p1070
aVstep7_1034.dcd
p1071
aVstep7_1035.dcd
p1072
aVstep7_1036.dcd
p1073
aVstep7_1037.dcd
p1074
aVstep7_1038.dcd
p1075
aVstep7_1039.dcd
p1076
aVstep7_1040.dcd
p1077
aVstep7_1041.dcd
p1078
aVstep7_1042.dcd
p1079
aVstep7_1043.dcd
p1080
aVstep7_1044.dcd
p1081
aVstep7_1045.dcd
p1082
aVstep7_1046.dcd
p1083
aVstep7_1047.dcd
p1084
aVstep7_1048.dcd
p1085
aVstep7_1049.dcd
p1086
aVstep7_1050.dcd
p1087
aVstep7_1051.dcd
p1088
aVstep7_1052.dcd
p1089
aVstep7_1053.dcd
p1090
aVstep7_1054.dcd
p1091
aVstep7_1055.dcd
p1092
aVstep7_1056.dcd
p1093
aVstep7_1057.dcd
p1094
aVstep7_1058.dcd
p1095
aVstep7_1059.dcd
p1096
aVstep7_1060.dcd
p1097
aVstep7_1061.dcd
p1098
aVstep7_1062.dcd
p1099
aVstep7_1063.dcd
p1100
aVstep7_1064.dcd
p1101
aVstep7_1065.dcd
p1102
aVstep7_1066.dcd
p1103
aVstep7_1067.dcd
p1104
aVstep7_1068.dcd
p1105
aVstep7_1069.dcd
p1106
aVstep7_1070.dcd
p1107
aVstep7_1071.dcd
p1108
aVstep7_1072.dcd
p1109
aVstep7_1073.dcd
p1110
aVstep7_1074.dcd
p1111
aVstep7_1075.dcd
p1112
aVstep7_1076.dcd
p1113
aVstep7_1077.dcd
p1114
aVstep7_1078.dcd
p1115
aVstep7_1079.dcd
p1116
aVstep7_1080.dcd
p1117
aVstep7_1081.dcd
p1118
aVstep7_1082.dcd
p1119
aVstep7_1083.dcd
p1120
aVstep7_1084.dcd
p1121
aVstep7_1085.dcd
p1122
aVstep7_1086.dcd
p1123
aVstep7_1087.dcd
p1124
aVstep7_1088.dcd
p1125
aVstep7_1089.dcd
p1126
aVstep7_1090.dcd
p1127
aVstep7_1091.dcd
p1128
aVstep7_1092.dcd
p1129
aVstep7_1093.dcd
p1130
aVstep7_1094.dcd
p1131
aVstep7_1095.dcd
p1132
aVstep7_1096.dcd
p1133
aVstep7_1097.dcd
p1134
aVstep7_1098.dcd
p1135
aVstep7_1099.dcd
p1136
aVstep7_1100.dcd
p1137
aVstep7_1101.dcd
p1138
aVstep7_1102.dcd
p1139
aVstep7_1103.dcd
p1140
aVstep7_1104.dcd
p1141
aVstep7_1105.dcd
p1142
aVstep7_1106.dcd
p1143
aVstep7_1107.dcd
p1144
aVstep7_1108.dcd
p1145
aVstep7_1109.dcd
p1146
aVstep7_1110.dcd
p1147
aVstep7_1111.dcd
p1148
aVstep7_1112.dcd
p1149
aVstep7_1113.dcd
p1150
aVstep7_1114.dcd
p1151
aVstep7_1115.dcd
p1152
aVstep7_1116.dcd
p1153
aVstep7_1117.dcd
p1154
aVstep7_1118.dcd
p1155
aVstep7_1119.dcd
p1156
aVstep7_1120.dcd
p1157
aVstep7_1121.dcd
p1158
aVstep7_1122.dcd
p1159
aVstep7_1123.dcd
p1160
aVstep7_1124.dcd
p1161
aVstep7_1125.dcd
p1162
aVstep7_1126.dcd
p1163
aVstep7_1127.dcd
p1164
aVstep7_1128.dcd
p1165
aVstep7_1129.dcd
p1166
aVstep7_1130.dcd
p1167
aVstep7_1131.dcd
p1168
aVstep7_1132.dcd
p1169
aVstep7_1133.dcd
p1170
aVstep7_1134.dcd
p1171
aVstep7_1135.dcd
p1172
aVstep7_1136.dcd
p1173
aVstep7_1137.dcd
p1174
aVstep7_1138.dcd
p1175
aVstep7_1139.dcd
p1176
aVstep7_1140.dcd
p1177
aVstep7_1141.dcd
p1178
aVstep7_1142.dcd
p1179
aVstep7_1143.dcd
p1180
aVstep7_1144.dcd
p1181
aVstep7_1145.dcd
p1182
aVstep7_1146.dcd
p1183
aVstep7_1147.dcd
p1184
aVstep7_1148.dcd
p1185
aVstep7_1149.dcd
p1186
aVstep7_1150.dcd
p1187
aVstep7_1151.dcd
p1188
aVstep7_1152.dcd
p1189
aVstep7_1153.dcd
p1190
aVstep7_1154.dcd
p1191
aVstep7_1155.dcd
p1192
aVstep7_1156.dcd
p1193
aVstep7_1157.dcd
p1194
aVstep7_1158.dcd
p1195
aVstep7_1159.dcd
p1196
aVstep7_1160.dcd
p1197
aVstep7_1161.dcd
p1198
aVstep7_1162.dcd
p1199
aVstep7_1163.dcd
p1200
aVstep7_1164.dcd
p1201
aVstep7_1165.dcd
p1202
aVstep7_1166.dcd
p1203
aVstep7_1167.dcd
p1204
aVstep7_1168.dcd
p1205
aVstep7_1169.dcd
p1206
aVstep7_1170.dcd
p1207
aVstep7_1171.dcd
p1208
aVstep7_1172.dcd
p1209
aVstep7_1173.dcd
p1210
aVstep7_1174.dcd
p1211
aVstep7_1175.dcd
p1212
aVstep7_1176.dcd
p1213
aVstep7_1177.dcd
p1214
aVstep7_1178.dcd
p1215
aVstep7_1179.dcd
p1216
aVstep7_1180.dcd
p1217
aVstep7_1181.dcd
p1218
aVstep7_1182.dcd
p1219
aVstep7_1183.dcd
p1220
aVstep7_1184.dcd
p1221
aVstep7_1185.dcd
p1222
aVstep7_1186.dcd
p1223
aVstep7_1187.dcd
p1224
aVstep7_1188.dcd
p1225
aVstep7_1189.dcd
p1226
aVstep7_1190.dcd
p1227
aVstep7_1191.dcd
p1228
aVstep7_1192.dcd
p1229
aVstep7_1193.dcd
p1230
aVstep7_1194.dcd
p1231
aVstep7_1195.dcd
p1232
aVstep7_1196.dcd
p1233
aVstep7_1197.dcd
p1234
aVstep7_1198.dcd
p1235
aVstep7_1199.dcd
p1236
aVstep7_1200.dcd
p1237
aVstep7_1201.dcd
p1238
aVstep7_1202.dcd
p1239
aVstep7_1203.dcd
p1240
aVstep7_1204.dcd
p1241
aVstep7_1205.dcd
p1242
aVstep7_1206.dcd
p1243
aVstep7_1207.dcd
p1244
aVstep7_1208.dcd
p1245
aVstep7_1209.dcd
p1246
aVstep7_1210.dcd
p1247
aVstep7_1211.dcd
p1248
aVstep7_1212.dcd
p1249
aVstep7_1213.dcd
p1250
aVstep7_1214.dcd
p1251
aVstep7_1215.dcd
p1252
aVstep7_1216.dcd
p1253
aVstep7_1217.dcd
p1254
aVstep7_1218.dcd
p1255
aVstep7_1219.dcd
p1256
aVstep7_1220.dcd
p1257
aVstep7_1221.dcd
p1258
aVstep7_1222.dcd
p1259
aVstep7_1223.dcd
p1260
aVstep7_1224.dcd
p1261
aVstep7_1225.dcd
p1262
aVstep7_1226.dcd
p1263
aVstep7_1227.dcd
p1264
aVstep7_1228.dcd
p1265
aVstep7_1229.dcd
p1266
aVstep7_1230.dcd
p1267
aVstep7_1231.dcd
p1268
aVstep7_1232.dcd
p1269
aVstep7_1233.dcd
p1270
aVstep7_1234.dcd
p1271
aVstep7_1235.dcd
p1272
aVstep7_1236.dcd
p1273
aVstep7_1237.dcd
p1274
aVstep7_1238.dcd
p1275
aVstep7_1239.dcd
p1276
aVstep7_1240.dcd
p1277
aVstep7_1241.dcd
p1278
aVstep7_1242.dcd
p1279
aVstep7_1243.dcd
p1280
aVstep7_1244.dcd
p1281
aVstep7_1245.dcd
p1282
aVstep7_1246.dcd
p1283
aVstep7_1247.dcd
p1284
aVstep7_1248.dcd
p1285
aVstep7_1249.dcd
p1286
aVstep7_1250.dcd
p1287
aVstep7_1251.dcd
p1288
aVstep7_1252.dcd
p1289
aVstep7_1253.dcd
p1290
aVstep7_1254.dcd
p1291
aVstep7_1255.dcd
p1292
aVstep7_1256.dcd
p1293
aVstep7_1257.dcd
p1294
aVstep7_1258.dcd
p1295
aVstep7_1259.dcd
p1296
aVstep7_1260.dcd
p1297
aVstep7_1261.dcd
p1298
aVstep7_1262.dcd
p1299
aVstep7_1263.dcd
p1300
aVstep7_1264.dcd
p1301
aVstep7_1265.dcd
p1302
aVstep7_1266.dcd
p1303
aVstep7_1267.dcd
p1304
aVstep7_1268.dcd
p1305
aVstep7_1269.dcd
p1306
aVstep7_1270.dcd
p1307
aVstep7_1271.dcd
p1308
aVstep7_1272.dcd
p1309
aVstep7_1273.dcd
p1310
aVstep7_1274.dcd
p1311
aVstep7_1275.dcd
p1312
aVstep7_1276.dcd
p1313
aVstep7_1277.dcd
p1314
aVstep7_1278.dcd
p1315
aVstep7_1279.dcd
p1316
aVstep7_1280.dcd
p1317
aVstep7_1281.dcd
p1318
aVstep7_1282.dcd
p1319
aVstep7_1283.dcd
p1320
aVstep7_1284.dcd
p1321
aVstep7_1285.dcd
p1322
aVstep7_1286.dcd
p1323
aVstep7_1287.dcd
p1324
aVstep7_1288.dcd
p1325
aVstep7_1289.dcd
p1326
aVstep7_1290.dcd
p1327
aVstep7_1291.dcd
p1328
aVstep7_1292.dcd
p1329
aVstep7_1293.dcd
p1330
aVstep7_1294.dcd
p1331
aVstep7_1295.dcd
p1332
aVstep7_1296.dcd
p1333
aVstep7_1297.dcd
p1334
aVstep7_1298.dcd
p1335
aVstep7_1299.dcd
p1336
aVstep7_1300.dcd
p1337
aVstep7_1301.dcd
p1338
aVstep7_1302.dcd
p1339
aVstep7_1303.dcd
p1340
aVstep7_1304.dcd
p1341
aVstep7_1305.dcd
p1342
aVstep7_1306.dcd
p1343
aVstep7_1307.dcd
p1344
aVstep7_1308.dcd
p1345
aVstep7_1309.dcd
p1346
aVstep7_1310.dcd
p1347
aVstep7_1311.dcd
p1348
aVstep7_1312.dcd
p1349
aVstep7_1313.dcd
p1350
aVstep7_1314.dcd
p1351
aVstep7_1315.dcd
p1352
aVstep7_1316.dcd
p1353
aVstep7_1317.dcd
p1354
aVstep7_1318.dcd
p1355
aVstep7_1319.dcd
p1356
aVstep7_1320.dcd
p1357
aVstep7_1321.dcd
p1358
aVstep7_1322.dcd
p1359
aVstep7_1323.dcd
p1360
aVstep7_1324.dcd
p1361
aVstep7_1325.dcd
p1362
aVstep7_1326.dcd
p1363
aVstep7_1327.dcd
p1364
aVstep7_1328.dcd
p1365
aVstep7_1329.dcd
p1366
aVstep7_1330.dcd
p1367
aVstep7_1331.dcd
p1368
aVstep7_1332.dcd
p1369
aVstep7_1333.dcd
p1370
aVstep7_1334.dcd
p1371
aVstep7_1335.dcd
p1372
aVstep7_1336.dcd
p1373
aVstep7_1337.dcd
p1374
aVstep7_1338.dcd
p1375
aVstep7_1339.dcd
p1376
aVstep7_1340.dcd
p1377
aVstep7_1341.dcd
p1378
aVstep7_1342.dcd
p1379
aVstep7_1343.dcd
p1380
aVstep7_1344.dcd
p1381
aVstep7_1345.dcd
p1382
aVstep7_1346.dcd
p1383
aVstep7_1347.dcd
p1384
aVstep7_1348.dcd
p1385
aVstep7_1349.dcd
p1386
aVstep7_1350.dcd
p1387
aVstep7_1351.dcd
p1388
aVstep7_1352.dcd
p1389
aVstep7_1353.dcd
p1390
aVstep7_1354.dcd
p1391
aVstep7_1355.dcd
p1392
aVstep7_1356.dcd
p1393
aVstep7_1357.dcd
p1394
aVstep7_1358.dcd
p1395
aVstep7_1359.dcd
p1396
aVstep7_1360.dcd
p1397
aVstep7_1361.dcd
p1398
aVstep7_1362.dcd
p1399
aVstep7_1363.dcd
p1400
aVstep7_1364.dcd
p1401
aVstep7_1365.dcd
p1402
aVstep7_1366.dcd
p1403
aVstep7_1367.dcd
p1404
aVstep7_1368.dcd
p1405
aVstep7_1369.dcd
p1406
aVstep7_1370.dcd
p1407
aVstep7_1371.dcd
p1408
aVstep7_1372.dcd
p1409
aVstep7_1373.dcd
p1410
aVstep7_1374.dcd
p1411
aVstep7_1375.dcd
p1412
aVstep7_1376.dcd
p1413
aVstep7_1377.dcd
p1414
aVstep7_1378.dcd
p1415
aVstep7_1379.dcd
p1416
aVstep7_1380.dcd
p1417
aVstep7_1381.dcd
p1418
aVstep7_1382.dcd
p1419
aVstep7_1383.dcd
p1420
aVstep7_1384.dcd
p1421
aVstep7_1385.dcd
p1422
aVstep7_1386.dcd
p1423
aVstep7_1387.dcd
p1424
aVstep7_1388.dcd
p1425
aVstep7_1389.dcd
p1426
aVstep7_1390.dcd
p1427
aVstep7_1391.dcd
p1428
aVstep7_1392.dcd
p1429
aVstep7_1393.dcd
p1430
aVstep7_1394.dcd
p1431
aVstep7_1395.dcd
p1432
aVstep7_1396.dcd
p1433
aVstep7_1397.dcd
p1434
aVstep7_1398.dcd
p1435
aVstep7_1399.dcd
p1436
aVstep7_1400.dcd
p1437
aVstep7_1401.dcd
p1438
aVstep7_1402.dcd
p1439
aVstep7_1403.dcd
p1440
aVstep7_1404.dcd
p1441
aVstep7_1405.dcd
p1442
aVstep7_1406.dcd
p1443
aVstep7_1407.dcd
p1444
aVstep7_1408.dcd
p1445
aVstep7_1409.dcd
p1446
aVstep7_1410.dcd
p1447
aVstep7_1411.dcd
p1448
aVstep7_1412.dcd
p1449
aVstep7_1413.dcd
p1450
aVstep7_1414.dcd
p1451
aVstep7_1415.dcd
p1452
aVstep7_1416.dcd
p1453
aVstep7_1417.dcd
p1454
aVstep7_1418.dcd
p1455
aVstep7_1419.dcd
p1456
aVstep7_1420.dcd
p1457
aVstep7_1421.dcd
p1458
aVstep7_1422.dcd
p1459
aVstep7_1423.dcd
p1460
aVstep7_1424.dcd
p1461
aVstep7_1425.dcd
p1462
aVstep7_1426.dcd
p1463
aVstep7_1427.dcd
p1464
aVstep7_1428.dcd
p1465
aVstep7_1429.dcd
p1466
aVstep7_1430.dcd
p1467
aVstep7_1431.dcd
p1468
aVstep7_1432.dcd
p1469
aVstep7_1433.dcd
p1470
aVstep7_1434.dcd
p1471
aVstep7_1435.dcd
p1472
aVstep7_1436.dcd
p1473
aVstep7_1437.dcd
p1474
aVstep7_1438.dcd
p1475
aVstep7_1439.dcd
p1476
aVstep7_1440.dcd
p1477
aVstep7_1441.dcd
p1478
aVstep7_1442.dcd
p1479
aVstep7_1443.dcd
p1480
aVstep7_1444.dcd
p1481
aVstep7_1445.dcd
p1482
aVstep7_1446.dcd
p1483
aVstep7_1447.dcd
p1484
aVstep7_1448.dcd
p1485
aVstep7_1449.dcd
p1486
aVstep7_1450.dcd
p1487
aVstep7_1451.dcd
p1488
aVstep7_1452.dcd
p1489
aVstep7_1453.dcd
p1490
aVstep7_1454.dcd
p1491
aVstep7_1455.dcd
p1492
aVstep7_1456.dcd
p1493
aVstep7_1457.dcd
p1494
aVstep7_1458.dcd
p1495
aVstep7_1459.dcd
p1496
aVstep7_1460.dcd
p1497
aVstep7_1461.dcd
p1498
aVstep7_1462.dcd
p1499
aVstep7_1463.dcd
p1500
aVstep7_1464.dcd
p1501
aVstep7_1465.dcd
p1502
aVstep7_1466.dcd
p1503
aVstep7_1467.dcd
p1504
aVstep7_1468.dcd
p1505
aVstep7_1469.dcd
p1506
aVstep7_1470.dcd
p1507
aVstep7_1471.dcd
p1508
aVstep7_1472.dcd
p1509
aVstep7_1473.dcd
p1510
aVstep7_1474.dcd
p1511
aVstep7_1475.dcd
p1512
aVstep7_1476.dcd
p1513
aVstep7_1477.dcd
p1514
aVstep7_1478.dcd
p1515
aVstep7_1479.dcd
p1516
aVstep7_1480.dcd
p1517
aVstep7_1481.dcd
p1518
aVstep7_1482.dcd
p1519
aVstep7_1483.dcd
p1520
aVstep7_1484.dcd
p1521
aVstep7_1485.dcd
p1522
aVstep7_1486.dcd
p1523
aVstep7_1487.dcd
p1524
aVstep7_1488.dcd
p1525
aVstep7_1489.dcd
p1526
aVstep7_1490.dcd
p1527
aVstep7_1491.dcd
p1528
aVstep7_1492.dcd
p1529
aVstep7_1493.dcd
p1530
aVstep7_1494.dcd
p1531
aVstep7_1495.dcd
p1532
aVstep7_1496.dcd
p1533
aVstep7_1497.dcd
p1534
aVstep7_1498.dcd
p1535
aVstep7_1499.dcd
p1536
asS'paraInfo'
p1537
(lp1538
(lp1539
VNumber of Parameters
p1540
aVFrame interval
p1541
aVOutput name
p1542
aVTotal number of atoms
p1543
aVlipid query
p1544
aVmax X coordinate
p1545
aVmax Y coordinate
p1546
aVqhull path
p1547
aasS'job_pkey'
p1548
(I319
tp1549
sS'path_output'
p1550
S'/home2/jcjeong/project/stanalyzer0/stanalyzer/media/jcjeong/'
p1551
sS'path_python'
p1552
V/export/apps/bin/python2.7
p1553
sS'job_title'
p1554
Vanalyzing trajectory
p1555
sS'pkey'
p1556
V4
p1557
sS'num_ps'
p1558
V5.0
p1559
sS'pdb_file'
p1560
Vstep5_assembly.pdb
p1561
sS'pbs_home'
p1562
S'/home2/jcjeong/project/stanalyzer0/stanalyzer/media/jcjeong/201310071644120677334V0Poa/pbs'
p1563
sS'base_path'
p1564
S'/imscratch/emiliawu/yeast_ecoli/yeast_ps_popi13_1/'
p1565
sS'date'
p1566
S'20131007164412067733'
p1567
sS'pbs'
p1568
V#!/bin/bash\u000a#PBS -l nodes=1:ppn=1\u000a#PBS -l mem=500mb\u000a#PBS -l walltime=72:00:00\u000a#PBS -l pcput=72:00:00\u000a#PBS -q default\u000a
p1569
sS'analyzer_home'
p1570
S'/home2/jcjeong/project/stanalyzer0/stanalyzer/static/analyzers'
p1571
sS'num_files'
p1572
V1500
p1573
sS'ptitle'
p1574
VYeast_ps_popi13_1
p1575
sS'structure_file'
p1576
Vstep5_assembly.xplor_ext.psf
p1577
sS'dbName'
p1578
S'/home2/jcjeong/project/stanalyzer0/stanalyzer/stanalyzer.db'
p1579
s.