(dp0
S'output_home'
p1
S'/home2/jcjeong/project/stanalyzer0/stanalyzer/media/jcjeong/20130328125800795350rjEObX/'
p2
sS'num_atoms'
p3
V32727
p4
sS'media_home'
p5
S'/home2/jcjeong/project/stanalyzer0/stanalyzer/media'
p6
sS'funcName'
p7
(lp8
Vbox
p9
aVdensity
p10
asS'Paras'
p11
(lp12
(lp13
(lp14
I2
aa(lp15
V1
p16
aa(lp17
Voutput.dat
p18
aaa(lp19
(lp20
I8
aa(lp21
g16
aa(lp22
Voutput.dat
p23
aa(lp24
VALL
p25
aa(lp26
V-21
p27
aa(lp28
V46
p29
aa(lp30
g16
aa(lp31
Vsegid LLO  and ( name P1  or name O1* or name P2 or name O2* )
p32
aa(lp33
V527
p34
aaasS'para_pkeys'
p35
(lp36
(lp37
I3362
aI3363
aI3364
aa(lp38
I3365
aI3366
aI3367
aI3368
aI3369
aI3370
aI3371
aI3372
aI3373
aasS'session_home'
p39
S'/home2/jcjeong/project/stanalyzer0/stanalyzer/media/jcjeong/20130328125800795350rjEObX'
p40
sS'num_frame'
p41
V50
p42
sS'trajectory'
p43
(lp44
Vstep7_0.dcd
p45
aVstep7_1.dcd
p46
aVstep7_2.dcd
p47
aVstep7_3.dcd
p48
aVstep7_4.dcd
p49
aVstep7_5.dcd
p50
aVstep7_6.dcd
p51
aVstep7_7.dcd
p52
aVstep7_8.dcd
p53
aVstep7_9.dcd
p54
aVstep7_10.dcd
p55
aVstep7_11.dcd
p56
aVstep7_12.dcd
p57
aVstep7_13.dcd
p58
aVstep7_14.dcd
p59
aVstep7_15.dcd
p60
aVstep7_16.dcd
p61
aVstep7_17.dcd
p62
aVstep7_18.dcd
p63
aVstep7_19.dcd
p64
aVstep7_20.dcd
p65
aVstep7_21.dcd
p66
aVstep7_22.dcd
p67
aVstep7_23.dcd
p68
aVstep7_24.dcd
p69
aVstep7_25.dcd
p70
aVstep7_26.dcd
p71
aVstep7_27.dcd
p72
aVstep7_28.dcd
p73
aVstep7_29.dcd
p74
aVstep7_30.dcd
p75
aVstep7_31.dcd
p76
aVstep7_32.dcd
p77
aVstep7_33.dcd
p78
aVstep7_34.dcd
p79
aVstep7_35.dcd
p80
aVstep7_36.dcd
p81
aVstep7_37.dcd
p82
aVstep7_38.dcd
p83
aVstep7_39.dcd
p84
aVstep7_40.dcd
p85
aVstep7_41.dcd
p86
aVstep7_42.dcd
p87
aVstep7_43.dcd
p88
aVstep7_44.dcd
p89
aVstep7_45.dcd
p90
aVstep7_46.dcd
p91
aVstep7_47.dcd
p92
aVstep7_48.dcd
p93
aVstep7_49.dcd
p94
aVstep7_50.dcd
p95
aVstep7_51.dcd
p96
aVstep7_52.dcd
p97
aVstep7_53.dcd
p98
aVstep7_54.dcd
p99
aVstep7_55.dcd
p100
aVstep7_56.dcd
p101
aVstep7_57.dcd
p102
aVstep7_58.dcd
p103
aVstep7_59.dcd
p104
aVstep7_60.dcd
p105
aVstep7_61.dcd
p106
aVstep7_62.dcd
p107
aVstep7_63.dcd
p108
aVstep7_64.dcd
p109
aVstep7_65.dcd
p110
aVstep7_66.dcd
p111
aVstep7_67.dcd
p112
aVstep7_68.dcd
p113
aVstep7_69.dcd
p114
aVstep7_70.dcd
p115
aVstep7_71.dcd
p116
aVstep7_72.dcd
p117
aVstep7_73.dcd
p118
aVstep7_74.dcd
p119
aVstep7_75.dcd
p120
aVstep7_76.dcd
p121
aVstep7_77.dcd
p122
aVstep7_78.dcd
p123
aVstep7_79.dcd
p124
aVstep7_80.dcd
p125
aVstep7_81.dcd
p126
aVstep7_82.dcd
p127
aVstep7_83.dcd
p128
aVstep7_84.dcd
p129
aVstep7_85.dcd
p130
aVstep7_86.dcd
p131
aVstep7_87.dcd
p132
aVstep7_88.dcd
p133
aVstep7_89.dcd
p134
aVstep7_90.dcd
p135
aVstep7_91.dcd
p136
aVstep7_92.dcd
p137
aVstep7_93.dcd
p138
aVstep7_94.dcd
p139
aVstep7_95.dcd
p140
aVstep7_96.dcd
p141
aVstep7_97.dcd
p142
aVstep7_98.dcd
p143
aVstep7_99.dcd
p144
aVstep7_100.dcd
p145
aVstep7_101.dcd
p146
aVstep7_102.dcd
p147
aVstep7_103.dcd
p148
aVstep7_104.dcd
p149
aVstep7_105.dcd
p150
aVstep7_106.dcd
p151
aVstep7_107.dcd
p152
aVstep7_108.dcd
p153
aVstep7_109.dcd
p154
aVstep7_110.dcd
p155
aVstep7_111.dcd
p156
aVstep7_112.dcd
p157
aVstep7_113.dcd
p158
aVstep7_114.dcd
p159
aVstep7_115.dcd
p160
aVstep7_116.dcd
p161
aVstep7_117.dcd
p162
aVstep7_118.dcd
p163
aVstep7_119.dcd
p164
aVstep7_120.dcd
p165
aVstep7_121.dcd
p166
aVstep7_122.dcd
p167
aVstep7_123.dcd
p168
aVstep7_124.dcd
p169
aVstep7_125.dcd
p170
aVstep7_126.dcd
p171
aVstep7_127.dcd
p172
aVstep7_128.dcd
p173
aVstep7_129.dcd
p174
aVstep7_130.dcd
p175
aVstep7_131.dcd
p176
aVstep7_132.dcd
p177
aVstep7_133.dcd
p178
aVstep7_134.dcd
p179
aVstep7_135.dcd
p180
aVstep7_136.dcd
p181
aVstep7_137.dcd
p182
aVstep7_138.dcd
p183
aVstep7_139.dcd
p184
aVstep7_140.dcd
p185
aVstep7_141.dcd
p186
aVstep7_142.dcd
p187
aVstep7_143.dcd
p188
aVstep7_144.dcd
p189
aVstep7_145.dcd
p190
aVstep7_146.dcd
p191
aVstep7_147.dcd
p192
aVstep7_148.dcd
p193
aVstep7_149.dcd
p194
aVstep7_150.dcd
p195
aVstep7_151.dcd
p196
aVstep7_152.dcd
p197
aVstep7_153.dcd
p198
aVstep7_154.dcd
p199
aVstep7_155.dcd
p200
aVstep7_156.dcd
p201
aVstep7_157.dcd
p202
aVstep7_158.dcd
p203
aVstep7_159.dcd
p204
aVstep7_160.dcd
p205
aVstep7_161.dcd
p206
aVstep7_162.dcd
p207
aVstep7_163.dcd
p208
aVstep7_164.dcd
p209
aVstep7_165.dcd
p210
aVstep7_166.dcd
p211
aVstep7_167.dcd
p212
aVstep7_168.dcd
p213
aVstep7_169.dcd
p214
aVstep7_170.dcd
p215
aVstep7_171.dcd
p216
aVstep7_172.dcd
p217
aVstep7_173.dcd
p218
aVstep7_174.dcd
p219
aVstep7_175.dcd
p220
aVstep7_176.dcd
p221
aVstep7_177.dcd
p222
aVstep7_178.dcd
p223
aVstep7_179.dcd
p224
aVstep7_180.dcd
p225
aVstep7_181.dcd
p226
aVstep7_182.dcd
p227
aVstep7_183.dcd
p228
aVstep7_184.dcd
p229
aVstep7_185.dcd
p230
aVstep7_186.dcd
p231
aVstep7_187.dcd
p232
aVstep7_188.dcd
p233
aVstep7_189.dcd
p234
aVstep7_190.dcd
p235
aVstep7_191.dcd
p236
aVstep7_192.dcd
p237
aVstep7_193.dcd
p238
aVstep7_194.dcd
p239
aVstep7_195.dcd
p240
aVstep7_196.dcd
p241
aVstep7_197.dcd
p242
aVstep7_198.dcd
p243
aVstep7_199.dcd
p244
asS'paraInfo'
p245
(lp246
(lp247
VNumber of Parameters
p248
aVFrame interval
p249
aVOutput name
p250
aa(lp251
VNumber of Parameters
p252
aVFrame interval
p253
aVOutput name
p254
aVAxis
p255
aVMinimum value in the given axis
p256
aVMaximum value in the given axis
p257
aVBin size
p258
aVQuery
p259
aVTotal number of atoms
p260
aasS'job_pkey'
p261
(I112
tp262
sS'path_output'
p263
S'/home2/jcjeong/project/stanalyzer0/stanalyzer/media/jcjeong/'
p264
sS'path_python'
p265
V/home/sunhwan/local/python/bin/python
p266
sS'job_title'
p267
Vanalyzing trajectory
p268
sS'pkey'
p269
V1
p270
sS'num_ps'
p271
V5.0
p272
sS'pdb_file'
p273
Vstep5_assembly.pdb
p274
sS'pbs_home'
p275
S'/home2/jcjeong/project/stanalyzer0/stanalyzer/media/jcjeong/20130328125800795350rjEObX/pbs'
p276
sS'base_path'
p277
S'/home2/jcjeong/project/charmm/dol_dopc_1/'
p278
sS'date'
p279
S'20130328125800795350'
p280
sS'pbs'
p281
V#!/bin/bash\u000a#PBS -l nodes=1:ppn=1\u000a#PBS -l mem=500mb\u000a#PBS -l walltime=72:00:00\u000a#PBS -l cput=72:00:00\u000a#PBS -q charmm_nmr\u000a
p282
sS'analyzer_home'
p283
S'/home2/jcjeong/project/stanalyzer0/stanalyzer/static/analyzers'
p284
sS'num_files'
p285
V200
p286
sS'ptitle'
p287
Vcalculating helix
p288
sS'structure_file'
p289
Vstep5_assembly.xplor_ext.psf
p290
sS'dbName'
p291
S'/home2/jcjeong/project/stanalyzer0/stanalyzer/stanalyzer.db'
p292
s.