(dp0
S'output_home'
p1
S'/home2/jcjeong/project/stanalyzer0/stanalyzer/media/jcjeong/20130213135205513298HumOa9/'
p2
sS'num_atoms'
p3
V36855
p4
sS'media_home'
p5
S'/home2/jcjeong/project/stanalyzer0/stanalyzer/media'
p6
sS'funcName'
p7
(lp8
Vhelix_tilt
p9
asS'Paras'
p10
(lp11
(lp12
(lp13
I6
aa(lp14
V2
p15
aa(lp16
Voutput.dat
p17
aa(lp18
V0
p19
aa(lp20
VPROA
p21
aa(lp22
V1
p23
aa(lp24
V46
p25
aaasS'para_pkeys'
p26
(lp27
(lp28
I2729
aI2730
aI2731
aI2732
aI2733
aI2734
aI2735
aasS'session_home'
p29
S'/home2/jcjeong/project/stanalyzer0/stanalyzer/media/jcjeong/20130213135205513298HumOa9'
p30
sS'num_frame'
p31
V10
p32
sS'trajectory'
p33
(lp34
Vstep6_1.dcd
p35
aVstep6_2.dcd
p36
asS'paraInfo'
p37
(lp38
(lp39
VNumber of Parameters
p40
aVFrame interval
p41
aVOutput name
p42
aVSegment ID
p43
aVSegment Name
p44
aVStart Residue
p45
aVTerminal Residue
p46
aasS'job_pkey'
p47
(I61
tp48
sS'path_output'
p49
S'/home2/jcjeong/project/stanalyzer0/stanalyzer/media/jcjeong/'
p50
sS'path_python'
p51
V/home/sunhwan/local/python/bin/python
p52
sS'job_title'
p53
Vanalyzing trajectory
p54
sS'pkey'
p55
V1
p56
sS'num_ps'
p57
V2.0
p58
sS'pbs_home'
p59
S'/home2/jcjeong/project/stanalyzer0/stanalyzer/media/jcjeong/20130213135205513298HumOa9/pbs'
p60
sS'base_path'
p61
S'/home2/jcjeong/project/stanalyzer1/stanalyzer/trajectory/'
p62
sS'date'
p63
S'20130213135205513298'
p64
sS'pbs'
p65
V#!/bin/bash\u000a#PBS -l nodes=1:ppn=1\u000a#PBS -l mem=500mb\u000a#PBS -l walltime=72:00:00\u000a#PBS -l cput=72:00:00\u000a#PBS -q default\u000a
p66
sS'analyzer_home'
p67
S'/home2/jcjeong/project/stanalyzer0/stanalyzer/static/analyzers'
p68
sS'num_files'
p69
V2
p70
sS'ptitle'
p71
Vcalculating helix
p72
sS'structure_file'
p73
Vstep5_assembly.psf
p74
sS'dbName'
p75
S'/home2/jcjeong/project/stanalyzer0/stanalyzer/stanalyzer.db'
p76
s.