(dp0
S'pkey'
p1
V1
p2
sS'pbs_home'
p3
S'/home2/jcjeong/project/stanalyzer0/stanalyzer/media/jcjeong/20130114094836629779ECkPZO/pbs'
p4
sS'pbs'
p5
V#!/bin/csh\u000a#PBS -l nodes=1:ppn=1\u000a#PBS -l mem=500mb\u000a#PBS -l walltime=72:00:00\u000a#PBS -l cput=72:00:00\u000a#PBS -q default\u000a
p6
sS'job_pkey'
p7
(I14
tp8
sS'output_home'
p9
S'/home2/jcjeong/project/stanalyzer0/stanalyzer/media/jcjeong/20130114094836629779ECkPZO/'
p10
sS'analyzer_home'
p11
S'/home2/jcjeong/project/stanalyzer0/stanalyzer/static/analyzers'
p12
sS'paraInfo'
p13
(lp14
(lp15
VNumber of Parameters
p16
aasS'media_home'
p17
S'/home2/jcjeong/project/stanalyzer0/stanalyzer/media'
p18
sS'base_path'
p19
S'/home2/jcjeong/project/stanalyzer1/stanalyzer/trajectory/'
p20
sS'path_python'
p21
V/home/sunhwan/local/python/bin/python
p22
sS'Paras'
p23
(lp24
(lp25
V0
p26
aasS'para_pkeys'
p27
(lp28
(lp29
I46
aasS'session_home'
p30
S'/home2/jcjeong/project/stanalyzer0/stanalyzer/media/jcjeong/20130114094836629779ECkPZO'
p31
sS'ptitle'
p32
Vprj
p33
sS'structure_file'
p34
Vstep5_assembly.psf
p35
sS'trajectory'
p36
(lp37
Vstep7_633.dcd
p38
aVstep7_669.dcd
p39
aVstep7_670.dcd
p40
aVstep7_671.dcd
p41
aVstep7_672.dcd
p42
asS'date'
p43
S'20130114094836629779'
p44
sS'funcName'
p45
(lp46
Vbox
p47
asS'path_output'
p48
S'/home2/jcjeong/project/stanalyzer0/stanalyzer/media/jcjeong/'
p49
sS'dbName'
p50
S'/home2/jcjeong/project/stanalyzer0/stanalyzer/stanalyzer.db'
p51
sS'job_title'
p52
Vanalyzing trajectory
p53
s.