(dp0
S'output_home'
p1
S'/home2/jcjeong/project/stanalyzer0/stanalyzer/media/jcjeong/20130418100638490024ifgMy4/'
p2
sS'num_atoms'
p3
V36855
p4
sS'media_home'
p5
S'/home2/jcjeong/project/stanalyzer0/stanalyzer/media'
p6
sS'funcName'
p7
(lp8
Vbox
p9
aVhelix_tilt
p10
aVdensity
p11
asS'Paras'
p12
(lp13
(lp14
(lp15
I2
aa(lp16
V1
p17
aa(lp18
Vbox_size.dat
p19
aaa(lp20
(lp21
I6
aa(lp22
g17
ag17
ag17
aa(lp23
Vhelix_tilt1_46.dat
p24
aVhelix_tilt15_40.dat
p25
aVhelix_tilt8_24.dat
p26
aa(lp27
V0
p28
ag28
ag28
aa(lp29
VPROA
p30
aVPROA
p31
aVPROA
p32
aa(lp33
g17
aV15
p34
aV8
p35
aa(lp36
V46
p37
aV40
p38
aV24
p39
aaa(lp40
(lp41
I8
aa(lp42
g17
ag17
ag17
ag17
ag17
ag17
ag17
aa(lp43
Vdensity_all.dat
p44
aVdensity_lipid_head.dat
p45
aVdensity_lipid_tail.dat
p46
aVdensity_water.dat
p47
aVdensity_segMEMB.dat
p48
aVdensity_seg.dat
p49
aVdensity_custom2.dat
p50
aa(lp51
VZ
p52
ag52
ag52
ag52
ag52
ag52
ag52
aa(lp53
V-54
p54
aV-54
p55
aV-54
p56
aV-54
p57
aV-54
p58
aV-77
p59
aV-69
p60
aa(lp61
V54
p62
aV54
p63
aV54
p64
aV54
p65
aV54
p66
aV77
p67
aV69
p68
aa(lp69
g17
ag17
ag17
ag17
ag17
ag17
ag17
aa(lp70
Vall
p71
aVsegid MEMB and ( name P or name N or (name C1* and not name C1) or name O1* )
p72
aVsegid MEMB and ( name C2* or name C3* ) and not ( name C21 or  name C31 )
p73
aVsegid TIP3 and name OH2
p74
aVsegid MEMB 
p75
aVsegid TIP3 
p76
aVsegid POT 
p77
aa(lp78
V25
p79
aV25
p80
aV25
p81
aV25
p82
aV25
p83
aV16476
p84
aV19677
p85
aaasS'para_pkeys'
p86
(lp87
(lp88
I4516
aI4517
aI4518
aa(lp89
I4519
aI4520
aI4521
aI4522
aI4523
aI4524
aI4525
aI4526
aI4527
aI4528
aI4529
aI4530
aI4531
aI4532
aI4533
aI4534
aI4535
aI4536
aI4537
aa(lp90
I4538
aI4539
aI4540
aI4541
aI4542
aI4543
aI4544
aI4545
aI4546
aI4547
aI4548
aI4549
aI4550
aI4551
aI4552
aI4553
aI4554
aI4555
aI4556
aI4557
aI4558
aI4559
aI4560
aI4561
aI4562
aI4563
aI4564
aI4565
aI4566
aI4567
aI4568
aI4569
aI4570
aI4571
aI4572
aI4573
aI4574
aI4575
aI4576
aI4577
aI4578
aI4579
aI4580
aI4581
aI4582
aI4583
aI4584
aI4585
aI4586
aI4587
aI4588
aI4589
aI4590
aI4591
aI4592
aI4593
aI4594
aasS'session_home'
p91
S'/home2/jcjeong/project/stanalyzer0/stanalyzer/media/jcjeong/20130418100638490024ifgMy4'
p92
sS'num_frame'
p93
V20
p94
sS'trajectory'
p95
(lp96
Vstep6_1.dcd
p97
aVstep6_2.dcd
p98
asS'paraInfo'
p99
(lp100
(lp101
VNumber of Parameters
p102
aVFrame interval
p103
aVOutput name
p104
aa(lp105
VNumber of Parameters
p106
aVFrame interval
p107
aVOutput name
p108
aVSegment ID
p109
aVSegment Name
p110
aVStart Residue
p111
aVTerminal Residue
p112
aa(lp113
VNumber of Parameters
p114
aVFrame interval
p115
aVOutput name
p116
aVAxis
p117
aVMinimum value in the given axis
p118
aVMaximum value in the given axis
p119
aVBin size
p120
aVQuery
p121
aVTotal number of atoms
p122
aasS'job_pkey'
p123
(I174
tp124
sS'path_output'
p125
S'/home2/jcjeong/project/stanalyzer0/stanalyzer/media/jcjeong/'
p126
sS'path_python'
p127
V/home/sunhwan/local/python/bin/python
p128
sS'job_title'
p129
Vanalyzing trajectory
p130
sS'pkey'
p131
V1
p132
sS'num_ps'
p133
V2.0
p134
sS'pdb_file'
p135
Vstep7_691.pdb
p136
sS'pbs_home'
p137
S'/home2/jcjeong/project/stanalyzer0/stanalyzer/media/jcjeong/20130418100638490024ifgMy4/pbs'
p138
sS'base_path'
p139
S'/home2/jcjeong/project/stanalyzer1/stanalyzer/trajectory/'
p140
sS'date'
p141
S'20130418100638490024'
p142
sS'pbs'
p143
V#!/bin/bash\u000a#PBS -l nodes=1:ppn=1\u000a#PBS -l mem=500mb\u000a#PBS -l walltime=72:00:00\u000a#PBS -l cput=72:00:00\u000a#PBS -q charmm_nmr\u000a
p144
sS'analyzer_home'
p145
S'/home2/jcjeong/project/stanalyzer0/stanalyzer/static/analyzers'
p146
sS'num_files'
p147
V2
p148
sS'ptitle'
p149
Vcalculating helix
p150
sS'structure_file'
p151
Vstep5_assembly.psf
p152
sS'dbName'
p153
S'/home2/jcjeong/project/stanalyzer0/stanalyzer/stanalyzer.db'
p154
s.