(dp0
S'output_home'
p1
S'/home2/jcjeong/project/stanalyzer0/stanalyzer/media/jcjeong/20131016160142418034rVyDaz/'
p2
sS'num_atoms'
p3
V32205
p4
sS'media_home'
p5
S'/home2/jcjeong/project/stanalyzer0/stanalyzer/media'
p6
sS'funcName'
p7
(lp8
Varea_per_lipid
p9
aVordpara_charmm
p10
asS'Paras'
p11
(lp12
(lp13
(lp14
I7
aa(lp15
V1
p16
aa(lp17
VEcoli_pe27_1_voronoi_lipid_per_area.dat
p18
aa(lp19
V32205
p20
aa(lp21
Vsegid MEMB and ( (resname DXPE and (name C2 or name C21 or name C31)) or (resname PMCL2 and (name C1 or name CA1 or name CB1 or name C3 or name CC1 or name CD1)) or (resname DPPE and (name C2 or name C21 or name C31)) or (resname TXCL2 and (name C1 or name CA1 or name CB1 or name C3 or name CC1 or name CD1)) or (resname PMPE and (name C2 or name C21 or name C31)))
p22
aa(lp23
V70
p24
aa(lp25
V70
p26
aa(lp27
V
p28
aaa(lp29
(lp30
I7
aa(lp31
g16
ag16
ag16
ag16
ag16
ag16
ag16
ag16
ag16
ag16
ag16
ag16
ag16
ag16
aa(lp32
VEcoli_pe27_1_ordpara_charmm_DXPE_C2.dat
p33
aVordpara_charmm_DXPE_C3.dat
p34
aVordpara_PMPE_C2.dat
p35
aVordpara_PMPE_C3.dat
p36
aVordpara_PMCL2_CA.dat
p37
aVordpara_PMCL2_CB.dat
p38
aVordpara_PMCL2_CC.dat
p39
aVordpara_PMCL2_CD.dat
p40
aVordpara_DPPE_C2.dat
p41
aVordpara_DPPE_C3.dat
p42
aVordpara_TXCL2_CA.dat
p43
aVordpara_TXCL2_CB.dat
p44
aVordpara_TXCL2_CC.dat
p45
aVordpara_TXCL2_CD.dat
p46
aa(lp47
VZ
p48
ag48
ag48
ag48
ag48
ag48
ag48
ag48
ag48
ag48
ag48
ag48
ag48
ag48
aa(lp49
V18078
p50
aV18078
p51
aV18078
p52
aV18078
p53
aV18078
p54
aV18078
p55
aV18078
p56
aV18078
p57
aV18078
p58
aV18078
p59
aV18078
p60
aV18078
p61
aV18078
p62
aV18078
p63
aa(lp64
Vsegid
p65
aVMEMB
p66
aVMEMB
p67
aVMEMB
p68
aVMEMB
p69
aVMEMB
p70
aVMEMB
p71
aVMEMB
p72
aVMEMB
p73
aVMEMB
p74
aVMEMB
p75
aVMEMB
p76
aVMEMB
p77
aVMEMB
p78
aa(lp79
VDXPE
p80
aVDXPE
p81
aVPMPE
p82
aVPMPE
p83
aVPMCL2
p84
aVPMCL2
p85
aVPMCL2
p86
aVPMCL2
p87
aVDPPE
p88
aVDPPE
p89
aVTXCL2
p90
aVTXCL2
p91
aVTXCL2
p92
aVTXCL2
p93
aa(lp94
Vname C2* and not (name C2 or name C21)
p95
aVname C3* and not (name C3 or name C31)
p96
aVname C2* and not (name C2 or name C21)
p97
aVname C3* and not (name C3 or name C31)
p98
aVname CA* and not (name CA1)
p99
aVname CB* and not (name CB1)
p100
aVname CC* and not (name CC1)
p101
aVname CD* and not (name CD1)
p102
aVname C2* and not (name C2 or name C21)
p103
aVname C3* and not (name C3 or name C31)
p104
aVname CA* and not (name CA1)
p105
aVname CB* and not (name CB1)
p106
aVname CC* and not (name CC1)
p107
aVname CD* and not (name CD1)
p108
aaasS'para_pkeys'
p109
(lp110
(lp111
I3065
aI3066
aI3067
aI3068
aI3069
aI3070
aI3071
aI3072
aa(lp112
I3073
aI3074
aI3075
aI3076
aI3077
aI3078
aI3079
aI3080
aI3081
aI3082
aI3083
aI3084
aI3085
aI3086
aI3087
aI3088
aI3089
aI3090
aI3091
aI3092
aI3093
aI3094
aI3095
aI3096
aI3097
aI3098
aI3099
aI3100
aI3101
aI3102
aI3103
aI3104
aI3105
aI3106
aI3107
aI3108
aI3109
aI3110
aI3111
aI3112
aI3113
aI3114
aI3115
aI3116
aI3117
aI3118
aI3119
aI3120
aI3121
aI3122
aI3123
aI3124
aI3125
aI3126
aI3127
aI3128
aI3129
aI3130
aI3131
aI3132
aI3133
aI3134
aI3135
aI3136
aI3137
aI3138
aI3139
aI3140
aI3141
aI3142
aI3143
aI3144
aI3145
aI3146
aI3147
aI3148
aI3149
aI3150
aI3151
aI3152
aI3153
aI3154
aI3155
aI3156
aI3157
aI3158
aI3159
aI3160
aI3161
aI3162
aI3163
aI3164
aI3165
aI3166
aI3167
aI3168
aI3169
aI3170
aI3171
aasS'session_home'
p113
S'/home2/jcjeong/project/stanalyzer0/stanalyzer/media/jcjeong/20131016160142418034rVyDaz'
p114
sS'num_frame'
p115
V40
p116
sS'trajectory'
p117
(lp118
Vstep7_0.dcd
p119
aVstep7_1.dcd
p120
aVstep7_2.dcd
p121
aVstep7_3.dcd
p122
aVstep7_4.dcd
p123
aVstep7_5.dcd
p124
aVstep7_6.dcd
p125
aVstep7_7.dcd
p126
aVstep7_8.dcd
p127
aVstep7_9.dcd
p128
aVstep7_10.dcd
p129
aVstep7_11.dcd
p130
aVstep7_12.dcd
p131
aVstep7_13.dcd
p132
aVstep7_14.dcd
p133
aVstep7_15.dcd
p134
aVstep7_16.dcd
p135
aVstep7_17.dcd
p136
aVstep7_18.dcd
p137
aVstep7_19.dcd
p138
aVstep7_20.dcd
p139
aVstep7_21.dcd
p140
aVstep7_22.dcd
p141
aVstep7_23.dcd
p142
aVstep7_24.dcd
p143
aVstep7_25.dcd
p144
aVstep7_26.dcd
p145
aVstep7_27.dcd
p146
aVstep7_28.dcd
p147
aVstep7_29.dcd
p148
aVstep7_30.dcd
p149
aVstep7_31.dcd
p150
aVstep7_32.dcd
p151
aVstep7_33.dcd
p152
aVstep7_34.dcd
p153
aVstep7_35.dcd
p154
aVstep7_36.dcd
p155
aVstep7_37.dcd
p156
aVstep7_38.dcd
p157
aVstep7_39.dcd
p158
aVstep7_40.dcd
p159
aVstep7_41.dcd
p160
aVstep7_42.dcd
p161
aVstep7_43.dcd
p162
aVstep7_44.dcd
p163
aVstep7_45.dcd
p164
aVstep7_46.dcd
p165
aVstep7_47.dcd
p166
aVstep7_48.dcd
p167
aVstep7_49.dcd
p168
aVstep7_50.dcd
p169
aVstep7_51.dcd
p170
aVstep7_52.dcd
p171
aVstep7_53.dcd
p172
aVstep7_54.dcd
p173
aVstep7_55.dcd
p174
aVstep7_56.dcd
p175
aVstep7_57.dcd
p176
aVstep7_58.dcd
p177
aVstep7_59.dcd
p178
aVstep7_60.dcd
p179
aVstep7_61.dcd
p180
aVstep7_62.dcd
p181
aVstep7_63.dcd
p182
aVstep7_64.dcd
p183
aVstep7_65.dcd
p184
aVstep7_66.dcd
p185
aVstep7_67.dcd
p186
aVstep7_68.dcd
p187
aVstep7_69.dcd
p188
aVstep7_70.dcd
p189
aVstep7_71.dcd
p190
aVstep7_72.dcd
p191
aVstep7_73.dcd
p192
aVstep7_74.dcd
p193
aVstep7_75.dcd
p194
aVstep7_76.dcd
p195
aVstep7_77.dcd
p196
aVstep7_78.dcd
p197
aVstep7_79.dcd
p198
aVstep7_80.dcd
p199
aVstep7_81.dcd
p200
aVstep7_82.dcd
p201
aVstep7_83.dcd
p202
aVstep7_84.dcd
p203
aVstep7_85.dcd
p204
aVstep7_86.dcd
p205
aVstep7_87.dcd
p206
aVstep7_88.dcd
p207
aVstep7_89.dcd
p208
aVstep7_90.dcd
p209
aVstep7_91.dcd
p210
aVstep7_92.dcd
p211
aVstep7_93.dcd
p212
aVstep7_94.dcd
p213
aVstep7_95.dcd
p214
aVstep7_96.dcd
p215
aVstep7_97.dcd
p216
aVstep7_98.dcd
p217
aVstep7_99.dcd
p218
aVstep7_100.dcd
p219
aVstep7_101.dcd
p220
aVstep7_102.dcd
p221
aVstep7_103.dcd
p222
aVstep7_104.dcd
p223
aVstep7_105.dcd
p224
aVstep7_106.dcd
p225
aVstep7_107.dcd
p226
aVstep7_108.dcd
p227
aVstep7_109.dcd
p228
aVstep7_110.dcd
p229
aVstep7_111.dcd
p230
aVstep7_112.dcd
p231
aVstep7_113.dcd
p232
aVstep7_114.dcd
p233
aVstep7_115.dcd
p234
aVstep7_116.dcd
p235
aVstep7_117.dcd
p236
aVstep7_118.dcd
p237
aVstep7_119.dcd
p238
aVstep7_120.dcd
p239
aVstep7_121.dcd
p240
aVstep7_122.dcd
p241
aVstep7_123.dcd
p242
aVstep7_124.dcd
p243
aVstep7_125.dcd
p244
aVstep7_126.dcd
p245
aVstep7_127.dcd
p246
aVstep7_128.dcd
p247
aVstep7_129.dcd
p248
aVstep7_130.dcd
p249
aVstep7_131.dcd
p250
aVstep7_132.dcd
p251
aVstep7_133.dcd
p252
aVstep7_134.dcd
p253
aVstep7_135.dcd
p254
aVstep7_136.dcd
p255
aVstep7_137.dcd
p256
aVstep7_138.dcd
p257
aVstep7_139.dcd
p258
aVstep7_140.dcd
p259
aVstep7_141.dcd
p260
aVstep7_142.dcd
p261
aVstep7_143.dcd
p262
aVstep7_144.dcd
p263
aVstep7_145.dcd
p264
aVstep7_146.dcd
p265
aVstep7_147.dcd
p266
aVstep7_148.dcd
p267
aVstep7_149.dcd
p268
aVstep7_150.dcd
p269
aVstep7_151.dcd
p270
aVstep7_152.dcd
p271
aVstep7_153.dcd
p272
aVstep7_154.dcd
p273
aVstep7_155.dcd
p274
aVstep7_156.dcd
p275
aVstep7_157.dcd
p276
aVstep7_158.dcd
p277
aVstep7_159.dcd
p278
aVstep7_160.dcd
p279
aVstep7_161.dcd
p280
aVstep7_162.dcd
p281
aVstep7_163.dcd
p282
aVstep7_164.dcd
p283
aVstep7_165.dcd
p284
aVstep7_166.dcd
p285
aVstep7_167.dcd
p286
aVstep7_168.dcd
p287
aVstep7_169.dcd
p288
aVstep7_170.dcd
p289
aVstep7_171.dcd
p290
aVstep7_172.dcd
p291
aVstep7_173.dcd
p292
aVstep7_174.dcd
p293
aVstep7_175.dcd
p294
aVstep7_176.dcd
p295
aVstep7_177.dcd
p296
aVstep7_178.dcd
p297
aVstep7_179.dcd
p298
aVstep7_180.dcd
p299
aVstep7_181.dcd
p300
aVstep7_182.dcd
p301
aVstep7_183.dcd
p302
aVstep7_184.dcd
p303
aVstep7_185.dcd
p304
aVstep7_186.dcd
p305
aVstep7_187.dcd
p306
aVstep7_188.dcd
p307
aVstep7_189.dcd
p308
aVstep7_190.dcd
p309
aVstep7_191.dcd
p310
aVstep7_192.dcd
p311
aVstep7_193.dcd
p312
aVstep7_194.dcd
p313
aVstep7_195.dcd
p314
aVstep7_196.dcd
p315
aVstep7_197.dcd
p316
aVstep7_198.dcd
p317
aVstep7_199.dcd
p318
aVstep7_200.dcd
p319
aVstep7_201.dcd
p320
aVstep7_202.dcd
p321
aVstep7_203.dcd
p322
aVstep7_204.dcd
p323
aVstep7_205.dcd
p324
aVstep7_206.dcd
p325
aVstep7_207.dcd
p326
aVstep7_208.dcd
p327
aVstep7_209.dcd
p328
aVstep7_210.dcd
p329
aVstep7_211.dcd
p330
aVstep7_212.dcd
p331
aVstep7_213.dcd
p332
aVstep7_214.dcd
p333
aVstep7_215.dcd
p334
aVstep7_216.dcd
p335
aVstep7_217.dcd
p336
aVstep7_218.dcd
p337
aVstep7_219.dcd
p338
aVstep7_220.dcd
p339
aVstep7_221.dcd
p340
aVstep7_222.dcd
p341
aVstep7_223.dcd
p342
aVstep7_224.dcd
p343
aVstep7_225.dcd
p344
aVstep7_226.dcd
p345
aVstep7_227.dcd
p346
aVstep7_228.dcd
p347
aVstep7_229.dcd
p348
aVstep7_230.dcd
p349
aVstep7_231.dcd
p350
aVstep7_232.dcd
p351
aVstep7_233.dcd
p352
aVstep7_234.dcd
p353
aVstep7_235.dcd
p354
aVstep7_236.dcd
p355
aVstep7_237.dcd
p356
aVstep7_238.dcd
p357
aVstep7_239.dcd
p358
aVstep7_240.dcd
p359
aVstep7_241.dcd
p360
aVstep7_242.dcd
p361
aVstep7_243.dcd
p362
aVstep7_244.dcd
p363
aVstep7_245.dcd
p364
aVstep7_246.dcd
p365
aVstep7_247.dcd
p366
aVstep7_248.dcd
p367
aVstep7_249.dcd
p368
aVstep7_250.dcd
p369
aVstep7_251.dcd
p370
aVstep7_252.dcd
p371
aVstep7_253.dcd
p372
aVstep7_254.dcd
p373
aVstep7_255.dcd
p374
aVstep7_256.dcd
p375
aVstep7_257.dcd
p376
aVstep7_258.dcd
p377
aVstep7_259.dcd
p378
aVstep7_260.dcd
p379
aVstep7_261.dcd
p380
aVstep7_262.dcd
p381
aVstep7_263.dcd
p382
aVstep7_264.dcd
p383
aVstep7_265.dcd
p384
aVstep7_266.dcd
p385
aVstep7_267.dcd
p386
aVstep7_268.dcd
p387
aVstep7_269.dcd
p388
aVstep7_270.dcd
p389
aVstep7_271.dcd
p390
aVstep7_272.dcd
p391
aVstep7_273.dcd
p392
aVstep7_274.dcd
p393
aVstep7_275.dcd
p394
aVstep7_276.dcd
p395
aVstep7_277.dcd
p396
aVstep7_278.dcd
p397
aVstep7_279.dcd
p398
aVstep7_280.dcd
p399
aVstep7_281.dcd
p400
aVstep7_282.dcd
p401
aVstep7_283.dcd
p402
aVstep7_284.dcd
p403
aVstep7_285.dcd
p404
aVstep7_286.dcd
p405
aVstep7_287.dcd
p406
aVstep7_288.dcd
p407
aVstep7_289.dcd
p408
aVstep7_290.dcd
p409
aVstep7_291.dcd
p410
aVstep7_292.dcd
p411
aVstep7_293.dcd
p412
aVstep7_294.dcd
p413
aVstep7_295.dcd
p414
aVstep7_296.dcd
p415
aVstep7_297.dcd
p416
aVstep7_298.dcd
p417
aVstep7_299.dcd
p418
aVstep7_300.dcd
p419
aVstep7_301.dcd
p420
aVstep7_302.dcd
p421
aVstep7_303.dcd
p422
aVstep7_304.dcd
p423
aVstep7_305.dcd
p424
aVstep7_306.dcd
p425
aVstep7_307.dcd
p426
aVstep7_308.dcd
p427
aVstep7_309.dcd
p428
aVstep7_310.dcd
p429
aVstep7_311.dcd
p430
aVstep7_312.dcd
p431
aVstep7_313.dcd
p432
aVstep7_314.dcd
p433
aVstep7_315.dcd
p434
aVstep7_316.dcd
p435
aVstep7_317.dcd
p436
aVstep7_318.dcd
p437
aVstep7_319.dcd
p438
aVstep7_320.dcd
p439
aVstep7_321.dcd
p440
aVstep7_322.dcd
p441
aVstep7_323.dcd
p442
aVstep7_324.dcd
p443
aVstep7_325.dcd
p444
aVstep7_326.dcd
p445
aVstep7_327.dcd
p446
aVstep7_328.dcd
p447
aVstep7_329.dcd
p448
aVstep7_330.dcd
p449
aVstep7_331.dcd
p450
aVstep7_332.dcd
p451
aVstep7_333.dcd
p452
aVstep7_334.dcd
p453
aVstep7_335.dcd
p454
aVstep7_336.dcd
p455
aVstep7_337.dcd
p456
aVstep7_338.dcd
p457
aVstep7_339.dcd
p458
aVstep7_340.dcd
p459
aVstep7_341.dcd
p460
aVstep7_342.dcd
p461
aVstep7_343.dcd
p462
aVstep7_344.dcd
p463
aVstep7_345.dcd
p464
aVstep7_346.dcd
p465
aVstep7_347.dcd
p466
aVstep7_348.dcd
p467
aVstep7_349.dcd
p468
aVstep7_350.dcd
p469
aVstep7_351.dcd
p470
aVstep7_352.dcd
p471
aVstep7_353.dcd
p472
aVstep7_354.dcd
p473
aVstep7_355.dcd
p474
aVstep7_356.dcd
p475
aVstep7_357.dcd
p476
aVstep7_358.dcd
p477
aVstep7_359.dcd
p478
aVstep7_360.dcd
p479
aVstep7_361.dcd
p480
aVstep7_362.dcd
p481
aVstep7_363.dcd
p482
aVstep7_364.dcd
p483
aVstep7_365.dcd
p484
aVstep7_366.dcd
p485
aVstep7_367.dcd
p486
aVstep7_368.dcd
p487
aVstep7_369.dcd
p488
aVstep7_370.dcd
p489
aVstep7_371.dcd
p490
aVstep7_372.dcd
p491
aVstep7_373.dcd
p492
aVstep7_374.dcd
p493
aVstep7_375.dcd
p494
aVstep7_376.dcd
p495
aVstep7_377.dcd
p496
aVstep7_378.dcd
p497
aVstep7_379.dcd
p498
aVstep7_380.dcd
p499
aVstep7_381.dcd
p500
aVstep7_382.dcd
p501
aVstep7_383.dcd
p502
aVstep7_384.dcd
p503
aVstep7_385.dcd
p504
aVstep7_386.dcd
p505
aVstep7_387.dcd
p506
aVstep7_388.dcd
p507
aVstep7_389.dcd
p508
aVstep7_390.dcd
p509
aVstep7_391.dcd
p510
aVstep7_392.dcd
p511
aVstep7_393.dcd
p512
aVstep7_394.dcd
p513
aVstep7_395.dcd
p514
aVstep7_396.dcd
p515
aVstep7_397.dcd
p516
aVstep7_398.dcd
p517
aVstep7_399.dcd
p518
aVstep7_400.dcd
p519
aVstep7_401.dcd
p520
aVstep7_402.dcd
p521
aVstep7_403.dcd
p522
aVstep7_404.dcd
p523
aVstep7_405.dcd
p524
aVstep7_406.dcd
p525
aVstep7_407.dcd
p526
aVstep7_408.dcd
p527
aVstep7_409.dcd
p528
aVstep7_410.dcd
p529
aVstep7_411.dcd
p530
aVstep7_412.dcd
p531
aVstep7_413.dcd
p532
aVstep7_414.dcd
p533
aVstep7_415.dcd
p534
aVstep7_416.dcd
p535
aVstep7_417.dcd
p536
aVstep7_418.dcd
p537
aVstep7_419.dcd
p538
aVstep7_420.dcd
p539
aVstep7_421.dcd
p540
aVstep7_422.dcd
p541
aVstep7_423.dcd
p542
aVstep7_424.dcd
p543
aVstep7_425.dcd
p544
aVstep7_426.dcd
p545
aVstep7_427.dcd
p546
aVstep7_428.dcd
p547
aVstep7_429.dcd
p548
aVstep7_430.dcd
p549
aVstep7_431.dcd
p550
aVstep7_432.dcd
p551
aVstep7_433.dcd
p552
aVstep7_434.dcd
p553
aVstep7_435.dcd
p554
aVstep7_436.dcd
p555
aVstep7_437.dcd
p556
aVstep7_438.dcd
p557
aVstep7_439.dcd
p558
aVstep7_440.dcd
p559
aVstep7_441.dcd
p560
aVstep7_442.dcd
p561
aVstep7_443.dcd
p562
aVstep7_444.dcd
p563
aVstep7_445.dcd
p564
aVstep7_446.dcd
p565
aVstep7_447.dcd
p566
aVstep7_448.dcd
p567
aVstep7_449.dcd
p568
aVstep7_450.dcd
p569
aVstep7_451.dcd
p570
aVstep7_452.dcd
p571
aVstep7_453.dcd
p572
aVstep7_454.dcd
p573
aVstep7_455.dcd
p574
aVstep7_456.dcd
p575
aVstep7_457.dcd
p576
aVstep7_458.dcd
p577
aVstep7_459.dcd
p578
aVstep7_460.dcd
p579
aVstep7_461.dcd
p580
aVstep7_462.dcd
p581
aVstep7_463.dcd
p582
aVstep7_464.dcd
p583
aVstep7_465.dcd
p584
aVstep7_466.dcd
p585
aVstep7_467.dcd
p586
aVstep7_468.dcd
p587
aVstep7_469.dcd
p588
aVstep7_470.dcd
p589
aVstep7_471.dcd
p590
aVstep7_472.dcd
p591
aVstep7_473.dcd
p592
aVstep7_474.dcd
p593
aVstep7_475.dcd
p594
aVstep7_476.dcd
p595
aVstep7_477.dcd
p596
aVstep7_478.dcd
p597
aVstep7_479.dcd
p598
aVstep7_480.dcd
p599
aVstep7_481.dcd
p600
aVstep7_482.dcd
p601
aVstep7_483.dcd
p602
aVstep7_484.dcd
p603
aVstep7_485.dcd
p604
aVstep7_486.dcd
p605
aVstep7_487.dcd
p606
aVstep7_488.dcd
p607
aVstep7_489.dcd
p608
aVstep7_490.dcd
p609
aVstep7_491.dcd
p610
aVstep7_492.dcd
p611
aVstep7_493.dcd
p612
aVstep7_494.dcd
p613
aVstep7_495.dcd
p614
aVstep7_496.dcd
p615
aVstep7_497.dcd
p616
aVstep7_498.dcd
p617
aVstep7_499.dcd
p618
aVstep7_500.dcd
p619
aVstep7_501.dcd
p620
aVstep7_502.dcd
p621
aVstep7_503.dcd
p622
aVstep7_504.dcd
p623
aVstep7_505.dcd
p624
aVstep7_506.dcd
p625
aVstep7_507.dcd
p626
aVstep7_508.dcd
p627
aVstep7_509.dcd
p628
aVstep7_510.dcd
p629
aVstep7_511.dcd
p630
aVstep7_512.dcd
p631
aVstep7_513.dcd
p632
aVstep7_514.dcd
p633
aVstep7_515.dcd
p634
aVstep7_516.dcd
p635
aVstep7_517.dcd
p636
aVstep7_518.dcd
p637
aVstep7_519.dcd
p638
aVstep7_520.dcd
p639
aVstep7_521.dcd
p640
aVstep7_522.dcd
p641
aVstep7_523.dcd
p642
aVstep7_524.dcd
p643
aVstep7_525.dcd
p644
aVstep7_526.dcd
p645
aVstep7_527.dcd
p646
aVstep7_528.dcd
p647
aVstep7_529.dcd
p648
aVstep7_530.dcd
p649
aVstep7_531.dcd
p650
aVstep7_532.dcd
p651
aVstep7_533.dcd
p652
aVstep7_534.dcd
p653
aVstep7_535.dcd
p654
aVstep7_536.dcd
p655
aVstep7_537.dcd
p656
aVstep7_538.dcd
p657
aVstep7_539.dcd
p658
aVstep7_540.dcd
p659
aVstep7_541.dcd
p660
aVstep7_542.dcd
p661
aVstep7_543.dcd
p662
aVstep7_544.dcd
p663
aVstep7_545.dcd
p664
aVstep7_546.dcd
p665
aVstep7_547.dcd
p666
aVstep7_548.dcd
p667
aVstep7_549.dcd
p668
aVstep7_550.dcd
p669
aVstep7_551.dcd
p670
aVstep7_552.dcd
p671
aVstep7_553.dcd
p672
aVstep7_554.dcd
p673
aVstep7_555.dcd
p674
aVstep7_556.dcd
p675
aVstep7_557.dcd
p676
aVstep7_558.dcd
p677
aVstep7_559.dcd
p678
aVstep7_560.dcd
p679
aVstep7_561.dcd
p680
aVstep7_562.dcd
p681
aVstep7_563.dcd
p682
aVstep7_564.dcd
p683
aVstep7_565.dcd
p684
aVstep7_566.dcd
p685
aVstep7_567.dcd
p686
aVstep7_568.dcd
p687
aVstep7_569.dcd
p688
aVstep7_570.dcd
p689
aVstep7_571.dcd
p690
aVstep7_572.dcd
p691
aVstep7_573.dcd
p692
aVstep7_574.dcd
p693
aVstep7_575.dcd
p694
aVstep7_576.dcd
p695
aVstep7_577.dcd
p696
aVstep7_578.dcd
p697
aVstep7_579.dcd
p698
aVstep7_580.dcd
p699
aVstep7_581.dcd
p700
aVstep7_582.dcd
p701
aVstep7_583.dcd
p702
aVstep7_584.dcd
p703
aVstep7_585.dcd
p704
aVstep7_586.dcd
p705
aVstep7_587.dcd
p706
aVstep7_588.dcd
p707
aVstep7_589.dcd
p708
aVstep7_590.dcd
p709
aVstep7_591.dcd
p710
aVstep7_592.dcd
p711
aVstep7_593.dcd
p712
aVstep7_594.dcd
p713
aVstep7_595.dcd
p714
aVstep7_596.dcd
p715
aVstep7_597.dcd
p716
aVstep7_598.dcd
p717
aVstep7_599.dcd
p718
aVstep7_600.dcd
p719
aVstep7_601.dcd
p720
aVstep7_602.dcd
p721
aVstep7_603.dcd
p722
aVstep7_604.dcd
p723
aVstep7_605.dcd
p724
aVstep7_606.dcd
p725
aVstep7_607.dcd
p726
aVstep7_608.dcd
p727
aVstep7_609.dcd
p728
aVstep7_610.dcd
p729
aVstep7_611.dcd
p730
aVstep7_612.dcd
p731
aVstep7_613.dcd
p732
aVstep7_614.dcd
p733
aVstep7_615.dcd
p734
aVstep7_616.dcd
p735
aVstep7_617.dcd
p736
aVstep7_618.dcd
p737
aVstep7_619.dcd
p738
aVstep7_620.dcd
p739
aVstep7_621.dcd
p740
aVstep7_622.dcd
p741
aVstep7_623.dcd
p742
aVstep7_624.dcd
p743
aVstep7_625.dcd
p744
aVstep7_626.dcd
p745
aVstep7_627.dcd
p746
aVstep7_628.dcd
p747
aVstep7_629.dcd
p748
aVstep7_630.dcd
p749
aVstep7_631.dcd
p750
aVstep7_632.dcd
p751
aVstep7_633.dcd
p752
aVstep7_634.dcd
p753
aVstep7_635.dcd
p754
aVstep7_636.dcd
p755
aVstep7_637.dcd
p756
aVstep7_638.dcd
p757
aVstep7_639.dcd
p758
aVstep7_640.dcd
p759
aVstep7_641.dcd
p760
aVstep7_642.dcd
p761
aVstep7_643.dcd
p762
aVstep7_644.dcd
p763
aVstep7_645.dcd
p764
aVstep7_646.dcd
p765
aVstep7_647.dcd
p766
aVstep7_648.dcd
p767
aVstep7_649.dcd
p768
aVstep7_650.dcd
p769
aVstep7_651.dcd
p770
aVstep7_652.dcd
p771
aVstep7_653.dcd
p772
aVstep7_654.dcd
p773
aVstep7_655.dcd
p774
aVstep7_656.dcd
p775
aVstep7_657.dcd
p776
aVstep7_658.dcd
p777
aVstep7_659.dcd
p778
aVstep7_660.dcd
p779
aVstep7_661.dcd
p780
aVstep7_662.dcd
p781
aVstep7_663.dcd
p782
aVstep7_664.dcd
p783
aVstep7_665.dcd
p784
aVstep7_666.dcd
p785
aVstep7_667.dcd
p786
aVstep7_668.dcd
p787
aVstep7_669.dcd
p788
aVstep7_670.dcd
p789
aVstep7_671.dcd
p790
aVstep7_672.dcd
p791
aVstep7_673.dcd
p792
aVstep7_674.dcd
p793
aVstep7_675.dcd
p794
aVstep7_676.dcd
p795
aVstep7_677.dcd
p796
aVstep7_678.dcd
p797
aVstep7_679.dcd
p798
aVstep7_680.dcd
p799
aVstep7_681.dcd
p800
aVstep7_682.dcd
p801
aVstep7_683.dcd
p802
aVstep7_684.dcd
p803
aVstep7_685.dcd
p804
aVstep7_686.dcd
p805
aVstep7_687.dcd
p806
aVstep7_688.dcd
p807
aVstep7_689.dcd
p808
aVstep7_690.dcd
p809
aVstep7_691.dcd
p810
aVstep7_692.dcd
p811
aVstep7_693.dcd
p812
aVstep7_694.dcd
p813
aVstep7_695.dcd
p814
aVstep7_696.dcd
p815
aVstep7_697.dcd
p816
aVstep7_698.dcd
p817
aVstep7_699.dcd
p818
aVstep7_700.dcd
p819
aVstep7_701.dcd
p820
aVstep7_702.dcd
p821
aVstep7_703.dcd
p822
aVstep7_704.dcd
p823
aVstep7_705.dcd
p824
aVstep7_706.dcd
p825
aVstep7_707.dcd
p826
aVstep7_708.dcd
p827
aVstep7_709.dcd
p828
aVstep7_710.dcd
p829
aVstep7_711.dcd
p830
aVstep7_712.dcd
p831
aVstep7_713.dcd
p832
aVstep7_714.dcd
p833
aVstep7_715.dcd
p834
aVstep7_716.dcd
p835
aVstep7_717.dcd
p836
aVstep7_718.dcd
p837
aVstep7_719.dcd
p838
aVstep7_720.dcd
p839
aVstep7_721.dcd
p840
aVstep7_722.dcd
p841
aVstep7_723.dcd
p842
aVstep7_724.dcd
p843
aVstep7_725.dcd
p844
aVstep7_726.dcd
p845
aVstep7_727.dcd
p846
aVstep7_728.dcd
p847
aVstep7_729.dcd
p848
aVstep7_730.dcd
p849
aVstep7_731.dcd
p850
aVstep7_732.dcd
p851
aVstep7_733.dcd
p852
aVstep7_734.dcd
p853
aVstep7_735.dcd
p854
aVstep7_736.dcd
p855
aVstep7_737.dcd
p856
aVstep7_738.dcd
p857
aVstep7_739.dcd
p858
aVstep7_740.dcd
p859
aVstep7_741.dcd
p860
aVstep7_742.dcd
p861
aVstep7_743.dcd
p862
aVstep7_744.dcd
p863
aVstep7_745.dcd
p864
aVstep7_746.dcd
p865
aVstep7_747.dcd
p866
aVstep7_748.dcd
p867
aVstep7_749.dcd
p868
aVstep7_750.dcd
p869
asS'paraInfo'
p870
(lp871
(lp872
VNumber of Parameters
p873
aVFrame interval
p874
aVOutput name
p875
aVTotal number of atoms
p876
aVlipid query
p877
aVmax X coordinate
p878
aVmax Y coordinate
p879
aVqhull path
p880
aa(lp881
VNumber of Parameters
p882
aVFrame interval
p883
aVOutput name
p884
aVAxis
p885
aVTotal number of atoms
p886
aVsegment ID
p887
aVresidue name
p888
aVcharmm query
p889
aasS'job_pkey'
p890
(I323
tp891
sS'path_output'
p892
S'/home2/jcjeong/project/stanalyzer0/stanalyzer/media/jcjeong/'
p893
sS'path_python'
p894
V/export/apps/bin/python2.7
p895
sS'job_title'
p896
Vanalyzing trajectory
p897
sS'pkey'
p898
V5
p899
sS'num_ps'
p900
V5.0
p901
sS'pdb_file'
p902
Vstep5_assembly.pdb
p903
sS'pbs_home'
p904
S'/home2/jcjeong/project/stanalyzer0/stanalyzer/media/jcjeong/20131016160142418034rVyDaz/pbs'
p905
sS'base_path'
p906
S'/imscratch/emiliawu/yeast_ecoli/ecoli_pe27_1/'
p907
sS'date'
p908
S'20131016160142418034'
p909
sS'pbs'
p910
V#!/bin/bash\u000a#PBS -l nodes=1:ppn=1\u000a#PBS -l mem=500mb\u000a#PBS -l walltime=72:00:00\u000a#PBS -l pcput=72:00:00\u000a#PBS -q default\u000a
p911
sS'analyzer_home'
p912
S'/home2/jcjeong/project/stanalyzer0/stanalyzer/static/analyzers'
p913
sS'num_files'
p914
V751
p915
sS'ptitle'
p916
VEcoli
p917
sS'structure_file'
p918
Vstep5_assembly.xplor_ext.psf
p919
sS'dbName'
p920
S'/home2/jcjeong/project/stanalyzer0/stanalyzer/stanalyzer.db'
p921
s.