(dp0
S'output_home'
p1
S'/home2/jcjeong/project/stanalyzer0/stanalyzer/media/jcjeong/20130409152734732952mAYUkG/'
p2
sS'num_atoms'
p3
V36855
p4
sS'media_home'
p5
S'/home2/jcjeong/project/stanalyzer0/stanalyzer/media'
p6
sS'funcName'
p7
(lp8
Vdensity
p9
aVdensity
p10
asS'Paras'
p11
(lp12
(lp13
(lp14
I8
aa(lp15
V1
p16
aa(lp17
Vdensity_all.dat
p18
aa(lp19
VZ
p20
aa(lp21
V-77
p22
aa(lp23
V77
p24
aa(lp25
g16
aa(lp26
Vall
p27
aa(lp28
V36855
p29
aaa(lp30
(lp31
I8
aa(lp32
g16
aa(lp33
Vdensity_lipid_head.dat
p34
aa(lp35
g20
aa(lp36
V-77
p37
aa(lp38
V77
p39
aa(lp40
g16
aa(lp41
Vsegid MEMB and ( name P or name N or (name C1* and not name C1) or name O1* )
p42
aa(lp43
V36855
p44
aaasS'para_pkeys'
p45
(lp46
(lp47
I3746
aI3747
aI3748
aI3749
aI3750
aI3751
aI3752
aI3753
aI3754
aa(lp48
I3746
aI3747
aI3748
aI3749
aI3750
aI3751
aI3752
aI3753
aI3754
aI3755
aI3756
aI3757
aI3758
aI3759
aI3760
aI3761
aI3762
aI3763
aasS'session_home'
p49
S'/home2/jcjeong/project/stanalyzer0/stanalyzer/media/jcjeong/20130409152734732952mAYUkG'
p50
sS'num_frame'
p51
V20
p52
sS'trajectory'
p53
(lp54
Vstep6_1.dcd
p55
asS'paraInfo'
p56
(lp57
(lp58
VNumber of Parameters
p59
aVFrame interval
p60
aVOutput name
p61
aVAxis
p62
aVMinimum value in the given axis
p63
aVMaximum value in the given axis
p64
aVBin size
p65
aVQuery
p66
aVTotal number of atoms
p67
aa(lp68
VNumber of Parameters
p69
aVFrame interval
p70
aVOutput name
p71
aVAxis
p72
aVMinimum value in the given axis
p73
aVMaximum value in the given axis
p74
aVBin size
p75
aVQuery
p76
aVTotal number of atoms
p77
aasS'job_pkey'
p78
(I145
tp79
sS'path_output'
p80
S'/home2/jcjeong/project/stanalyzer0/stanalyzer/media/jcjeong/'
p81
sS'path_python'
p82
V/home/sunhwan/local/python/bin/python
p83
sS'job_title'
p84
Vanalyzing trajectory
p85
sS'pkey'
p86
V1
p87
sS'num_ps'
p88
V2.0
p89
sS'pdb_file'
p90
Vstep7_691.pdb
p91
sS'pbs_home'
p92
S'/home2/jcjeong/project/stanalyzer0/stanalyzer/media/jcjeong/20130409152734732952mAYUkG/pbs'
p93
sS'base_path'
p94
S'/home2/jcjeong/project/stanalyzer1/stanalyzer/trajectory/'
p95
sS'date'
p96
S'20130409152734732952'
p97
sS'pbs'
p98
V#!/bin/bash\u000a#PBS -l nodes=1:ppn=1\u000a#PBS -l mem=500mb\u000a#PBS -l walltime=72:00:00\u000a#PBS -l cput=72:00:00\u000a#PBS -q charmm_nmr\u000a
p99
sS'analyzer_home'
p100
S'/home2/jcjeong/project/stanalyzer0/stanalyzer/static/analyzers'
p101
sS'num_files'
p102
V1
p103
sS'ptitle'
p104
Vcalculating helix
p105
sS'structure_file'
p106
Vstep5_assembly.psf
p107
sS'dbName'
p108
S'/home2/jcjeong/project/stanalyzer0/stanalyzer/stanalyzer.db'
p109
s.