(dp0
S'output_home'
p1
S'/home2/jcjeong/project/stanalyzer0/stanalyzer/media/jcjeong/20130712165957655607c5pJn7/'
p2
sS'num_atoms'
p3
V18019
p4
sS'media_home'
p5
S'/home2/jcjeong/project/stanalyzer0/stanalyzer/media'
p6
sS'funcName'
p7
(lp8
Vlipid_per_area_voro
p9
asS'Paras'
p10
(lp11
(lp12
(lp13
I7
aa(lp14
V1
p15
aa(lp16
Vvoronoi_lipid_per_area.dat
p17
aa(lp18
V18019
p19
aa(lp20
Vsegid MEMB and (( resname CHL1 and name O3 ) or ( resname DOPC and ( name C2 or name C21 or name C31 )) or ( resname POPC and (name C2 or name C21 or name C31 )) or ( resname POPI and ( name C2 or name C21 or name C31 )) or ( resname POPI13 and ( name C2 or name C21 or name C31 )))\u000a
p21
aa(lp22
V47
p23
aa(lp24
V47
p25
aa(lp26
V/home2/jcjeong/project/qhull/qhull-2012.1/bin
p27
aaasS'para_pkeys'
p28
(lp29
(lp30
I872
aI873
aI874
aI875
aI876
aI877
aI878
aI879
aasS'session_home'
p31
S'/home2/jcjeong/project/stanalyzer0/stanalyzer/media/jcjeong/20130712165957655607c5pJn7'
p32
sS'num_frame'
p33
V40
p34
sS'trajectory'
p35
(lp36
Vstep7_300.dcd
p37
aVstep7_301.dcd
p38
aVstep7_302.dcd
p39
aVstep7_303.dcd
p40
aVstep7_304.dcd
p41
aVstep7_305.dcd
p42
aVstep7_306.dcd
p43
aVstep7_307.dcd
p44
aVstep7_308.dcd
p45
aVstep7_309.dcd
p46
aVstep7_310.dcd
p47
aVstep7_311.dcd
p48
aVstep7_312.dcd
p49
aVstep7_313.dcd
p50
aVstep7_314.dcd
p51
aVstep7_315.dcd
p52
aVstep7_316.dcd
p53
aVstep7_317.dcd
p54
aVstep7_318.dcd
p55
aVstep7_319.dcd
p56
aVstep7_320.dcd
p57
aVstep7_321.dcd
p58
aVstep7_322.dcd
p59
aVstep7_323.dcd
p60
aVstep7_324.dcd
p61
aVstep7_325.dcd
p62
aVstep7_326.dcd
p63
aVstep7_327.dcd
p64
aVstep7_328.dcd
p65
aVstep7_329.dcd
p66
aVstep7_330.dcd
p67
aVstep7_331.dcd
p68
aVstep7_332.dcd
p69
aVstep7_333.dcd
p70
aVstep7_334.dcd
p71
aVstep7_335.dcd
p72
aVstep7_336.dcd
p73
aVstep7_337.dcd
p74
aVstep7_338.dcd
p75
aVstep7_339.dcd
p76
aVstep7_340.dcd
p77
aVstep7_341.dcd
p78
aVstep7_342.dcd
p79
aVstep7_343.dcd
p80
aVstep7_344.dcd
p81
aVstep7_345.dcd
p82
aVstep7_346.dcd
p83
aVstep7_347.dcd
p84
aVstep7_348.dcd
p85
aVstep7_349.dcd
p86
aVstep7_350.dcd
p87
asS'paraInfo'
p88
(lp89
(lp90
VNumber of Parameters
p91
aVFrame interval
p92
aVOutput name
p93
aVTotal number of atoms
p94
aVlipid query
p95
aVmax X coordinate
p96
aVmax Y coordinate
p97
aVqhull path
p98
aasS'job_pkey'
p99
(I103
tp100
sS'path_output'
p101
S'/home2/jcjeong/project/stanalyzer0/stanalyzer/media/jcjeong/'
p102
sS'path_python'
p103
V/export/apps/bin/python2.7
p104
sS'job_title'
p105
Vanalyzing trajectory
p106
sS'pkey'
p107
V1
p108
sS'num_ps'
p109
V5.0
p110
sS'pdb_file'
p111
Vstep5_assembly.pdb
p112
sS'pbs_home'
p113
S'/home2/jcjeong/project/stanalyzer0/stanalyzer/media/jcjeong/20130712165957655607c5pJn7/pbs'
p114
sS'base_path'
p115
S'/imscratch/emiliawu/yeast_ecoli/yeast_pc_popi13_1/'
p116
sS'date'
p117
S'20130712165957655607'
p118
sS'pbs'
p119
V#!/bin/bash\u000a#PBS -l nodes=1:ppn=1\u000a#PBS -l mem=500mb\u000a#PBS -l walltime=72:00:00\u000a#PBS -l cput=72:00:00\u000a#PBS -q default\u000a\u000aexport LD_LIBRARY_PATH=/export/apps/compilers/gcc48/lib64\u000a\u000a
p120
sS'analyzer_home'
p121
S'/home2/jcjeong/project/stanalyzer0/stanalyzer/static/analyzers'
p122
sS'num_files'
p123
V51
p124
sS'ptitle'
p125
VST-analyzer test1
p126
sS'structure_file'
p127
Vstep5_assembly.xplor_ext.psf
p128
sS'dbName'
p129
S'/home2/jcjeong/project/stanalyzer0/stanalyzer/stanalyzer.db'
p130
s.